   1               		.file	"main.c"
   2               	__SP_H__ = 0x3e
   3               	__SP_L__ = 0x3d
   4               	__SREG__ = 0x3f
   5               	__tmp_reg__ = 0
   6               	__zero_reg__ = 1
   7               		.text
   8               	.Ltext0:
   9               		.cfi_sections	.debug_frame
  10               		.section	.text.stopAsuro,"ax",@progbits
  11               	.global	stopAsuro
  13               	stopAsuro:
  14               	.LFB3:
  15               		.file 1 "helpers.h"
   1:helpers.h     **** #include <stdio.h>
   2:helpers.h     **** 
   3:helpers.h     **** void stopAsuro(int pause) // While Schleife zum Blinken benötigt!
   4:helpers.h     **** {
  16               		.loc 1 4 0
  17               		.cfi_startproc
  18               	.LVL0:
  19 0000 CF93      		push r28	 ;  50	pushqi1/1	[length = 1]
  20               	.LCFI0:
  21               		.cfi_def_cfa_offset 3
  22               		.cfi_offset 28, -2
  23 0002 DF93      		push r29	 ;  51	pushqi1/1	[length = 1]
  24               	.LCFI1:
  25               		.cfi_def_cfa_offset 4
  26               		.cfi_offset 29, -3
  27               	/* prologue: function */
  28               	/* frame size = 0 */
  29               	/* stack size = 2 */
  30               	.L__stack_usage = 2
  31 0004 EC01      		movw r28,r24	 ;  2	*movhi/1	[length = 1]
  32               	.LVL1:
   5:helpers.h     **** 	int status = 0;
   6:helpers.h     **** 	MotorSpeed(0, 0);
  33               		.loc 1 6 0
  34 0006 60E0      		ldi r22,0	 ;  7	movqi_insn/1	[length = 1]
  35 0008 80E0      		ldi r24,0	 ;  8	movqi_insn/1	[length = 1]
  36               	.LVL2:
  37 000a 00D0      		rcall MotorSpeed	 ;  9	call_insn/2	[length = 1]
  38               	.LVL3:
   7:helpers.h     **** 	if (status) { 				
   8:helpers.h     **** 		BackLED(ON, OFF);
   9:helpers.h     **** 		status = 0;
  10:helpers.h     **** 	} else {
  11:helpers.h     **** 		BackLED(OFF, ON);
  39               		.loc 1 11 0
  40 000c 61E0      		ldi r22,lo8(1)	 ;  10	movqi_insn/2	[length = 1]
  41 000e 80E0      		ldi r24,0	 ;  11	movqi_insn/1	[length = 1]
  42 0010 00D0      		rcall BackLED	 ;  12	call_insn/2	[length = 1]
  43               	.LVL4:
  12:helpers.h     **** 		status = 1;
  13:helpers.h     **** 	}
  14:helpers.h     **** 	if (pause > 0)
  44               		.loc 1 14 0
  45 0012 1C16      		cp __zero_reg__,r28	 ;  14	*reversed_tsthi	[length = 2]
  46 0014 1D06      		cpc __zero_reg__,r29
  47 0016 04F4      		brge .L1	 ;  15	branch	[length = 1]
  48               	.LVL5:
  49               	.L4:
  50               	.LBB12:
  51               	.LBB13:
  52               		.file 2 "../../libtinyasuro/inc/asuro/time.h"
   1:../../libtinyasuro/inc/asuro/time.h **** /**
   2:../../libtinyasuro/inc/asuro/time.h ****  * @file
   3:../../libtinyasuro/inc/asuro/time.h ****  *
   4:../../libtinyasuro/inc/asuro/time.h ****  * \if de
   5:../../libtinyasuro/inc/asuro/time.h ****  * Definiert die Schnittstelle für die Verwendung des Timer2 als gemeinsame
   6:../../libtinyasuro/inc/asuro/time.h ****  * Zeitbasis und Taktquelle.
   7:../../libtinyasuro/inc/asuro/time.h ****  *
   8:../../libtinyasuro/inc/asuro/time.h ****  * Es werden Funktionen definiert, die es ermöglichen, den Prozessor für einen
   9:../../libtinyasuro/inc/asuro/time.h ****  * definierten Zeitraum oder bis zum nächsten Interrupt in den Idle-Mode zu
  10:../../libtinyasuro/inc/asuro/time.h ****  * versetzen (unter Verwendung der Funktionalität aus avr/sleep.h).
  11:../../libtinyasuro/inc/asuro/time.h ****  *
  12:../../libtinyasuro/inc/asuro/time.h ****  * Außerdem wird die Möglichkeit geboten, die Taktausgabe für die
  13:../../libtinyasuro/inc/asuro/time.h ****  * IR-Schnittstelle ein- und auszuschalten.
  14:../../libtinyasuro/inc/asuro/time.h ****  *
  15:../../libtinyasuro/inc/asuro/time.h ****  * Zusätzlich besteht die Möglichkeit, eine eigene Funktion in der mit 36kHz
  16:../../libtinyasuro/inc/asuro/time.h ****  * aufgerufenen Timer2-ISR auszuführen, sofern diese Option in hooks.h aktiviert
  17:../../libtinyasuro/inc/asuro/time.h ****  * ist.
  18:../../libtinyasuro/inc/asuro/time.h ****  *
  19:../../libtinyasuro/inc/asuro/time.h ****  * @par Wichtiger Hinweis:
  20:../../libtinyasuro/inc/asuro/time.h ****  *      Für eine korrekte Funktion des Moduls müssen Interrupts global
  21:../../libtinyasuro/inc/asuro/time.h ****  *      freigeschaltet sein, Ausnahmen sind für kurze Zeitspannen zulässig,
  22:../../libtinyasuro/inc/asuro/time.h ****  *      können aber die Genauigkeit negativ beeinflussen.
  23:../../libtinyasuro/inc/asuro/time.h ****  *
  24:../../libtinyasuro/inc/asuro/time.h ****  * @par Initialisierung:
  25:../../libtinyasuro/inc/asuro/time.h ****  *      Vor der Verwendung des Moduls muss Timer2Init() aufgerufen werden, zudem
  26:../../libtinyasuro/inc/asuro/time.h ****  *      wird eine globale Interruptfreigabe benötigt.
  27:../../libtinyasuro/inc/asuro/time.h ****  *
  28:../../libtinyasuro/inc/asuro/time.h ****  * @par Genutzte Hardwareressourcen:
  29:../../libtinyasuro/inc/asuro/time.h ****  *      Module:
  30:../../libtinyasuro/inc/asuro/time.h ****  *      @li Timer2
  31:../../libtinyasuro/inc/asuro/time.h ****  *
  32:../../libtinyasuro/inc/asuro/time.h ****  *      Interruptvektoren:
  33:../../libtinyasuro/inc/asuro/time.h ****  *      @li TIMER2_OVF
  34:../../libtinyasuro/inc/asuro/time.h ****  *
  35:../../libtinyasuro/inc/asuro/time.h ****  *      I/O:
  36:../../libtinyasuro/inc/asuro/time.h ****  *      @li Port B: Pin 3 (36kHz-Träger der IR-Schnittstelle)
  37:../../libtinyasuro/inc/asuro/time.h ****  * \endif
  38:../../libtinyasuro/inc/asuro/time.h ****  *
  39:../../libtinyasuro/inc/asuro/time.h ****  * \if en
  40:../../libtinyasuro/inc/asuro/time.h ****  * Interface definitions to use timer2 as common clock source and time
  41:../../libtinyasuro/inc/asuro/time.h ****  * reference.
  42:../../libtinyasuro/inc/asuro/time.h ****  *
  43:../../libtinyasuro/inc/asuro/time.h ****  * This interface defines functions to put the microcontroller into idle mode
  44:../../libtinyasuro/inc/asuro/time.h ****  * for either a defined timespan or until the next interrupt occurs. The
  45:../../libtinyasuro/inc/asuro/time.h ****  * functionality in avr/sleep.h is used for this purpose.
  46:../../libtinyasuro/inc/asuro/time.h ****  *
  47:../../libtinyasuro/inc/asuro/time.h ****  * The carrier clock for the IR communications interface can be controlled
  48:../../libtinyasuro/inc/asuro/time.h ****  * using this interface.
  49:../../libtinyasuro/inc/asuro/time.h ****  *
  50:../../libtinyasuro/inc/asuro/time.h ****  * Timer2 is operating with a frequency of 36kHz, custom code can be executed
  51:../../libtinyasuro/inc/asuro/time.h ****  * by an ISR of timer2 if this feature is enabled in hooks.h.
  52:../../libtinyasuro/inc/asuro/time.h ****  *
  53:../../libtinyasuro/inc/asuro/time.h ****  * @par Important:
  54:../../libtinyasuro/inc/asuro/time.h ****  *      This module requires interrupts to be enabled globally. Short term
  55:../../libtinyasuro/inc/asuro/time.h ****  *      exceptions may be permittable but can have a negative effect on the
  56:../../libtinyasuro/inc/asuro/time.h ****  *      accuracy of the provided clock.
  57:../../libtinyasuro/inc/asuro/time.h ****  *
  58:../../libtinyasuro/inc/asuro/time.h ****  * @par Initialization:
  59:../../libtinyasuro/inc/asuro/time.h ****  *      Timer2Init() must be called before using this module. Interrupts must be
  60:../../libtinyasuro/inc/asuro/time.h ****  *      enabled globally.
  61:../../libtinyasuro/inc/asuro/time.h ****  *
  62:../../libtinyasuro/inc/asuro/time.h ****  * @par Hardware resources in use:
  63:../../libtinyasuro/inc/asuro/time.h ****  *      Components:
  64:../../libtinyasuro/inc/asuro/time.h ****  *      @li Timer2
  65:../../libtinyasuro/inc/asuro/time.h ****  *
  66:../../libtinyasuro/inc/asuro/time.h ****  *      Interrupt vectors:
  67:../../libtinyasuro/inc/asuro/time.h ****  *      @li TIMER2_OVF
  68:../../libtinyasuro/inc/asuro/time.h ****  *
  69:../../libtinyasuro/inc/asuro/time.h ****  *      I/O:
  70:../../libtinyasuro/inc/asuro/time.h ****  *      @li Port B: Pin 3 (36kHz carrier signal for IR communications)
  71:../../libtinyasuro/inc/asuro/time.h ****  * \endif
  72:../../libtinyasuro/inc/asuro/time.h ****  *
  73:../../libtinyasuro/inc/asuro/time.h ****  * @see hooks.h
  74:../../libtinyasuro/inc/asuro/time.h ****  *
  75:../../libtinyasuro/inc/asuro/time.h ****  * @author Markus Jung
  76:../../libtinyasuro/inc/asuro/time.h ****  *
  77:../../libtinyasuro/inc/asuro/time.h ****  * @version 23.05.2010 \n
  78:../../libtinyasuro/inc/asuro/time.h ****  *  Schnittstellendefinition entsprechend asuro.h
  79:../../libtinyasuro/inc/asuro/time.h ****  * @version 28.05.2010 \n
  80:../../libtinyasuro/inc/asuro/time.h ****  *  Zählervariable zugänglich gemacht
  81:../../libtinyasuro/inc/asuro/time.h ****  * @version 02.06.2010 \n
  82:../../libtinyasuro/inc/asuro/time.h ****  *  sleepUntilInterrupt implementiert
  83:../../libtinyasuro/inc/asuro/time.h ****  * @version 15.06.2010 \n
  84:../../libtinyasuro/inc/asuro/time.h ****  *  Doku
  85:../../libtinyasuro/inc/asuro/time.h ****  * @version 26.06.2010 \n
  86:../../libtinyasuro/inc/asuro/time.h ****  *  Alias-Makros für sleep, msleep und sleepUntilInterrupt hinzugefügt
  87:../../libtinyasuro/inc/asuro/time.h ****  *  (zwecks konsistentem Namensschema)
  88:../../libtinyasuro/inc/asuro/time.h ****  * @version 16.08.2010 \n
  89:../../libtinyasuro/inc/asuro/time.h ****  *  + Hook für Timer2ISR
  90:../../libtinyasuro/inc/asuro/time.h ****  * @version 13.09.2013 \n
  91:../../libtinyasuro/inc/asuro/time.h ****  *  English documentation
  92:../../libtinyasuro/inc/asuro/time.h ****  * @version 29.10.2013 \n
  93:../../libtinyasuro/inc/asuro/time.h ****  *  Document interrupt safety issues of TIMER2_CLOCK_OUT_ENABLE() and
  94:../../libtinyasuro/inc/asuro/time.h ****  *  TIMER2_CLOCK_OUT_DISABLE()
  95:../../libtinyasuro/inc/asuro/time.h ****  */
  96:../../libtinyasuro/inc/asuro/time.h **** /*
  97:../../libtinyasuro/inc/asuro/time.h ****  * The contents of this file are subject to the terms of the Common Development
  98:../../libtinyasuro/inc/asuro/time.h ****  * and Distribution License Version 1.0 (the License).
  99:../../libtinyasuro/inc/asuro/time.h ****  * You may not use this file except in compliance with the License.
 100:../../libtinyasuro/inc/asuro/time.h ****  *
 101:../../libtinyasuro/inc/asuro/time.h ****  * If not included, you can obtain a copy of the License at
 102:../../libtinyasuro/inc/asuro/time.h ****  * http://www.sun.com/cddl/cddl.html
 103:../../libtinyasuro/inc/asuro/time.h ****  *
 104:../../libtinyasuro/inc/asuro/time.h ****  * When distributing Covered Code, include this CDDL Header Notice in each file
 105:../../libtinyasuro/inc/asuro/time.h ****  * and include the provided License file.
 106:../../libtinyasuro/inc/asuro/time.h ****  */
 107:../../libtinyasuro/inc/asuro/time.h **** 
 108:../../libtinyasuro/inc/asuro/time.h **** #ifndef TIME_H_
 109:../../libtinyasuro/inc/asuro/time.h **** #define TIME_H_
 110:../../libtinyasuro/inc/asuro/time.h **** 
 111:../../libtinyasuro/inc/asuro/time.h **** #include <stdbool.h>
 112:../../libtinyasuro/inc/asuro/time.h **** #include <stdint.h>
 113:../../libtinyasuro/inc/asuro/time.h **** #include "hooks.h"
 114:../../libtinyasuro/inc/asuro/time.h **** #include "../util/misc.h"
 115:../../libtinyasuro/inc/asuro/time.h **** 
 116:../../libtinyasuro/inc/asuro/time.h **** #ifdef __DOXYGEN__
 117:../../libtinyasuro/inc/asuro/time.h **** /** \if de
 118:../../libtinyasuro/inc/asuro/time.h ****  * Alias-Makro für sleep().
 119:../../libtinyasuro/inc/asuro/time.h ****  * \endif
 120:../../libtinyasuro/inc/asuro/time.h ****  *
 121:../../libtinyasuro/inc/asuro/time.h ****  * \if en
 122:../../libtinyasuro/inc/asuro/time.h ****  * Alias macro for sleep().
 123:../../libtinyasuro/inc/asuro/time.h ****  * \endif
 124:../../libtinyasuro/inc/asuro/time.h ****  */
 125:../../libtinyasuro/inc/asuro/time.h **** #define Sleep
 126:../../libtinyasuro/inc/asuro/time.h **** /** \if de
 127:../../libtinyasuro/inc/asuro/time.h ****  * Alias-Makro für msleep().
 128:../../libtinyasuro/inc/asuro/time.h ****  * \endif
 129:../../libtinyasuro/inc/asuro/time.h ****  *
 130:../../libtinyasuro/inc/asuro/time.h ****  * \if en
 131:../../libtinyasuro/inc/asuro/time.h ****  * Alias macro for msleep().
 132:../../libtinyasuro/inc/asuro/time.h ****  * \endif
 133:../../libtinyasuro/inc/asuro/time.h ****  */
 134:../../libtinyasuro/inc/asuro/time.h **** #define Msleep
 135:../../libtinyasuro/inc/asuro/time.h **** /** \if de
 136:../../libtinyasuro/inc/asuro/time.h ****  * Alias-Makro für sleepUntilInterrupt().
 137:../../libtinyasuro/inc/asuro/time.h ****  * \endif
 138:../../libtinyasuro/inc/asuro/time.h ****  *
 139:../../libtinyasuro/inc/asuro/time.h ****  * \if en
 140:../../libtinyasuro/inc/asuro/time.h ****  * Alias macro for sleepUntilInterrupt().
 141:../../libtinyasuro/inc/asuro/time.h ****  * \endif
 142:../../libtinyasuro/inc/asuro/time.h ****  */
 143:../../libtinyasuro/inc/asuro/time.h **** #define SleepUntilInterrupt
 144:../../libtinyasuro/inc/asuro/time.h **** #else
 145:../../libtinyasuro/inc/asuro/time.h **** #define Sleep               sleep
 146:../../libtinyasuro/inc/asuro/time.h **** #define Msleep              msleep
 147:../../libtinyasuro/inc/asuro/time.h **** #define SleepUntilInterrupt sleepUntilInterrupt
 148:../../libtinyasuro/inc/asuro/time.h **** #endif
 149:../../libtinyasuro/inc/asuro/time.h **** 
 150:../../libtinyasuro/inc/asuro/time.h **** /**
 151:../../libtinyasuro/inc/asuro/time.h ****  * \if de
 152:../../libtinyasuro/inc/asuro/time.h ****  * Eine Zählvariable die im 36kHz-Takt (um eins) inkrementiert wird.
 153:../../libtinyasuro/inc/asuro/time.h ****  * \endif
 154:../../libtinyasuro/inc/asuro/time.h ****  *
 155:../../libtinyasuro/inc/asuro/time.h ****  * \if en
 156:../../libtinyasuro/inc/asuro/time.h ****  * A counting variable incremented from the 36kHz clock.
 157:../../libtinyasuro/inc/asuro/time.h ****  * \endif
 158:../../libtinyasuro/inc/asuro/time.h ****  */
 159:../../libtinyasuro/inc/asuro/time.h **** extern volatile uint8_t tick36kHz; // counts from 0 to 255
 160:../../libtinyasuro/inc/asuro/time.h **** 
 161:../../libtinyasuro/inc/asuro/time.h **** #ifdef __DOXYGEN__
 162:../../libtinyasuro/inc/asuro/time.h **** /**
 163:../../libtinyasuro/inc/asuro/time.h ****  * \if de
 164:../../libtinyasuro/inc/asuro/time.h ****  * Bietet die Möglichkeit, eine eigene Funktion bei jedem Aufruf der Timer-ISR
 165:../../libtinyasuro/inc/asuro/time.h ****  * auszuführen. Die interne Funktionalität bleibt dabei erhalten.
 166:../../libtinyasuro/inc/asuro/time.h ****  *
 167:../../libtinyasuro/inc/asuro/time.h ****  * Da die Timer-ISR mit einer Frequenz von 36kHz aufgerufen wird, sollte diese
 168:../../libtinyasuro/inc/asuro/time.h ****  * Funktion möglichst kurz sein.
 169:../../libtinyasuro/inc/asuro/time.h ****  *
 170:../../libtinyasuro/inc/asuro/time.h ****  * Der Aufruf erfolgt aus dem Kontext eines Interrupts!
 171:../../libtinyasuro/inc/asuro/time.h ****  *
 172:../../libtinyasuro/inc/asuro/time.h ****  * Ist (Timer2ISRHook == NULL), findet kein Aufruf statt.
 173:../../libtinyasuro/inc/asuro/time.h ****  *
 174:../../libtinyasuro/inc/asuro/time.h ****  * Diese Funktionalität steht nicht zur Verfügung, wenn TIMER2_ISR_HOOK_ENABLE
 175:../../libtinyasuro/inc/asuro/time.h ****  * deaktiviert ist.
 176:../../libtinyasuro/inc/asuro/time.h ****  * \endif
 177:../../libtinyasuro/inc/asuro/time.h ****  *
 178:../../libtinyasuro/inc/asuro/time.h ****  * \if en
 179:../../libtinyasuro/inc/asuro/time.h ****  * Offers the ability to execute a custom function in addition to the internal
 180:../../libtinyasuro/inc/asuro/time.h ****  * code of the timer ISR.
 181:../../libtinyasuro/inc/asuro/time.h ****  *
 182:../../libtinyasuro/inc/asuro/time.h ****  * Since the ISR will be executed with a frequency of 36kHz, the called function
 183:../../libtinyasuro/inc/asuro/time.h ****  * should be as short as possible.
 184:../../libtinyasuro/inc/asuro/time.h ****  *
 185:../../libtinyasuro/inc/asuro/time.h ****  * The function will be called from an interrupt context!
 186:../../libtinyasuro/inc/asuro/time.h ****  *
 187:../../libtinyasuro/inc/asuro/time.h ****  * No function call will be executed if (Timer2ISRHook == NULL).
 188:../../libtinyasuro/inc/asuro/time.h ****  *
 189:../../libtinyasuro/inc/asuro/time.h ****  * The timer hook feature is not available if TIMER2_ISR_HOOK_ENABLE has been
 190:../../libtinyasuro/inc/asuro/time.h ****  * disabled.
 191:../../libtinyasuro/inc/asuro/time.h ****  * \endif
 192:../../libtinyasuro/inc/asuro/time.h ****  */
 193:../../libtinyasuro/inc/asuro/time.h **** extern ISRHookFunc_t *Timer2ISRHook;
 194:../../libtinyasuro/inc/asuro/time.h **** #else  // !__DOXYGEN__
 195:../../libtinyasuro/inc/asuro/time.h **** #if TIMER2_ISR_HOOK_ENABLE
 196:../../libtinyasuro/inc/asuro/time.h **** extern ISRHookFunc_t *Timer2ISRHook;
 197:../../libtinyasuro/inc/asuro/time.h **** #endif
 198:../../libtinyasuro/inc/asuro/time.h **** #endif
 199:../../libtinyasuro/inc/asuro/time.h **** 
 200:../../libtinyasuro/inc/asuro/time.h **** /**
 201:../../libtinyasuro/inc/asuro/time.h ****  * \if de
 202:../../libtinyasuro/inc/asuro/time.h ****  * Initialisiert das Modul und den als Zeitbasis und Taktgenerator für die
 203:../../libtinyasuro/inc/asuro/time.h ****  * Infrarotschnittstelle verwendeten Timer2.
 204:../../libtinyasuro/inc/asuro/time.h ****  *
 205:../../libtinyasuro/inc/asuro/time.h ****  * Nach der Initialisierung ist die Taktausgabe für die Infrarotschnittstelle
 206:../../libtinyasuro/inc/asuro/time.h ****  * deaktiviert.
 207:../../libtinyasuro/inc/asuro/time.h ****  * \endif
 208:../../libtinyasuro/inc/asuro/time.h ****  *
 209:../../libtinyasuro/inc/asuro/time.h ****  * \if en
 210:../../libtinyasuro/inc/asuro/time.h ****  * Initializes the module and timer2 which is used as time reference and clock
 211:../../libtinyasuro/inc/asuro/time.h ****  * source for the IR communications interface.
 212:../../libtinyasuro/inc/asuro/time.h ****  *
 213:../../libtinyasuro/inc/asuro/time.h ****  * The clock output for the IR interface will be in a disabled state after the
 214:../../libtinyasuro/inc/asuro/time.h ****  * initialization has been completed.
 215:../../libtinyasuro/inc/asuro/time.h ****  * \endif
 216:../../libtinyasuro/inc/asuro/time.h ****  */
 217:../../libtinyasuro/inc/asuro/time.h **** extern void Timer2Init(void);
 218:../../libtinyasuro/inc/asuro/time.h **** 
 219:../../libtinyasuro/inc/asuro/time.h **** /**
 220:../../libtinyasuro/inc/asuro/time.h ****  * \if de
 221:../../libtinyasuro/inc/asuro/time.h ****  * Aktiviert die Ausgabe des 36kHz-Signals für die Infrarotschnittstelle.
 222:../../libtinyasuro/inc/asuro/time.h ****  *
 223:../../libtinyasuro/inc/asuro/time.h ****  * @par Wichtiger Hinweis:
 224:../../libtinyasuro/inc/asuro/time.h ****  * Dieses Makro ist nur eingeschänkt interruptfest. Es darf nicht "parallel" zu
 225:../../libtinyasuro/inc/asuro/time.h ****  * TIMER2_CLOCK_OUT_DISABLE() ausgeführt werden.
 226:../../libtinyasuro/inc/asuro/time.h ****  * \endif
 227:../../libtinyasuro/inc/asuro/time.h ****  *
 228:../../libtinyasuro/inc/asuro/time.h ****  * \if en
 229:../../libtinyasuro/inc/asuro/time.h ****  * Enables the 36kHz carrier signal for the IR communications interface.
 230:../../libtinyasuro/inc/asuro/time.h ****  *
 231:../../libtinyasuro/inc/asuro/time.h ****  * @par Important:
 232:../../libtinyasuro/inc/asuro/time.h ****  * This macro is interrupt-safe except for one restriction. It must not be
 233:../../libtinyasuro/inc/asuro/time.h ****  * executed in parallel to TIMER2_CLOCK_OUT_DISABLE().
 234:../../libtinyasuro/inc/asuro/time.h ****  * \endif
 235:../../libtinyasuro/inc/asuro/time.h ****  */
 236:../../libtinyasuro/inc/asuro/time.h **** #ifdef __DOXYGEN__
 237:../../libtinyasuro/inc/asuro/time.h **** #define TIMER2_CLOCK_OUT_ENABLE()
 238:../../libtinyasuro/inc/asuro/time.h **** #else
 239:../../libtinyasuro/inc/asuro/time.h **** #define TIMER2_CLOCK_OUT_ENABLE() \
 240:../../libtinyasuro/inc/asuro/time.h ****     do { /* Fast PWM, BOTTOM: Clear, CompMatch: Set */ \
 241:../../libtinyasuro/inc/asuro/time.h ****         TCCR2 |= (1 << WGM20) | (1 << WGM21) | (1 << COM20) | (1 << COM21); \
 242:../../libtinyasuro/inc/asuro/time.h ****     } while (false)
 243:../../libtinyasuro/inc/asuro/time.h **** #endif
 244:../../libtinyasuro/inc/asuro/time.h **** 
 245:../../libtinyasuro/inc/asuro/time.h **** /**
 246:../../libtinyasuro/inc/asuro/time.h ****  * \if de
 247:../../libtinyasuro/inc/asuro/time.h ****  * Deaktiviert die Ausgabe des 36kHz-Signals für die Infrarotschnittstelle.
 248:../../libtinyasuro/inc/asuro/time.h ****  *
 249:../../libtinyasuro/inc/asuro/time.h ****  * @par Wichtiger Hinweis:
 250:../../libtinyasuro/inc/asuro/time.h ****  * Dieses Makro ist nur eingeschränkt interruptfest. Es darf nicht "parallel"
 251:../../libtinyasuro/inc/asuro/time.h ****  * zu TIMER2_CLOCK_OUT_ENABLE() ausgeführt werden.
 252:../../libtinyasuro/inc/asuro/time.h ****  * \endif
 253:../../libtinyasuro/inc/asuro/time.h ****  *
 254:../../libtinyasuro/inc/asuro/time.h ****  * \if en
 255:../../libtinyasuro/inc/asuro/time.h ****  * Disables the 36kHz carrier signal for the IR communications interface.
 256:../../libtinyasuro/inc/asuro/time.h ****  *
 257:../../libtinyasuro/inc/asuro/time.h ****  * @par Important:
 258:../../libtinyasuro/inc/asuro/time.h ****  * This macro is interrupt-safe except for one restriction. It must not be
 259:../../libtinyasuro/inc/asuro/time.h ****  * executed in parallel to TIMER2_CLOCK_OUT_ENABLE().
 260:../../libtinyasuro/inc/asuro/time.h ****  * \endif
 261:../../libtinyasuro/inc/asuro/time.h ****  */
 262:../../libtinyasuro/inc/asuro/time.h **** #ifdef __DOXYGEN__
 263:../../libtinyasuro/inc/asuro/time.h **** #define TIMER2_CLOCK_OUT_DISABLE()
 264:../../libtinyasuro/inc/asuro/time.h **** #else
 265:../../libtinyasuro/inc/asuro/time.h **** #define TIMER2_CLOCK_OUT_DISABLE() \
 266:../../libtinyasuro/inc/asuro/time.h ****     do { /* PWM off */ \
 267:../../libtinyasuro/inc/asuro/time.h ****         TCCR2 &= ~((1 << WGM20) | (1 << WGM21) | (1 << COM20) | (1 << COM21)); \
 268:../../libtinyasuro/inc/asuro/time.h ****     } while (false)
 269:../../libtinyasuro/inc/asuro/time.h **** #endif
 270:../../libtinyasuro/inc/asuro/time.h **** 
 271:../../libtinyasuro/inc/asuro/time.h **** /**
 272:../../libtinyasuro/inc/asuro/time.h ****  * \if de
 273:../../libtinyasuro/inc/asuro/time.h ****  * Hält den Programmfluss für die vorgegebene Anzahl 36kHz-Takte an und schickt
 274:../../libtinyasuro/inc/asuro/time.h ****  * den Prozessor währendessen in den Idle-Mode.
 275:../../libtinyasuro/inc/asuro/time.h ****  *
 276:../../libtinyasuro/inc/asuro/time.h ****  * Alle Interrupts bleiben aktiv und werden ausgeführt, ledliglich der
 277:../../libtinyasuro/inc/asuro/time.h ****  * aufrufende Programmpfad wird unterbrochen.
 278:../../libtinyasuro/inc/asuro/time.h ****  *
 279:../../libtinyasuro/inc/asuro/time.h ****  * Wenn diese Funktion aufgerufen wird, geht sie davon aus, dass Interrupts
 280:../../libtinyasuro/inc/asuro/time.h ****  * global freigeschaltet sind - wenn nicht findet die globale Interruptfreigabe
 281:../../libtinyasuro/inc/asuro/time.h ****  * vor Eintritt in den Idle-Mode statt.
 282:../../libtinyasuro/inc/asuro/time.h ****  *
 283:../../libtinyasuro/inc/asuro/time.h ****  * @param timer36kHz_ticks die Anzahl der 36kHz-Takte die der Prozessor
 284:../../libtinyasuro/inc/asuro/time.h ****  *                         "schlafen" soll
 285:../../libtinyasuro/inc/asuro/time.h ****  * \endif
 286:../../libtinyasuro/inc/asuro/time.h ****  *
 287:../../libtinyasuro/inc/asuro/time.h ****  * \if en
 288:../../libtinyasuro/inc/asuro/time.h ****  * Delays the execution for the specified amount of time, measured in 36kHz
 289:../../libtinyasuro/inc/asuro/time.h ****  * ticks. The microcontroller will halted (idle mode) during this time.
 290:../../libtinyasuro/inc/asuro/time.h ****  *
 291:../../libtinyasuro/inc/asuro/time.h ****  * All interrupt requests remain active and will be executed, the calling
 292:../../libtinyasuro/inc/asuro/time.h ****  * function itself remains halted.
 293:../../libtinyasuro/inc/asuro/time.h ****  *
 294:../../libtinyasuro/inc/asuro/time.h ****  * This function expects interrupts to be globally enabled if it gets called.
 295:../../libtinyasuro/inc/asuro/time.h ****  * If not, the global interrupt enable bit will be set before entering the sleep
 296:../../libtinyasuro/inc/asuro/time.h ****  * mode and remain in this state after the function returns.
 297:../../libtinyasuro/inc/asuro/time.h ****  *
 298:../../libtinyasuro/inc/asuro/time.h ****  * @param timer36kHz_ticks the number of 36kHz ticks the microcontroller will
 299:../../libtinyasuro/inc/asuro/time.h ****  *                         be halted.
 300:../../libtinyasuro/inc/asuro/time.h ****  * \endif
 301:../../libtinyasuro/inc/asuro/time.h ****  */
 302:../../libtinyasuro/inc/asuro/time.h **** extern void sleep(uint8_t timer36kHz_ticks);
 303:../../libtinyasuro/inc/asuro/time.h **** /**
 304:../../libtinyasuro/inc/asuro/time.h ****  * \if de
 305:../../libtinyasuro/inc/asuro/time.h ****  * Schickt den Prozessor in den Idle-Mode und kehrt zurück, nachdem ein
 306:../../libtinyasuro/inc/asuro/time.h ****  * Interrupt ausgelöst wurde.
 307:../../libtinyasuro/inc/asuro/time.h ****  *
 308:../../libtinyasuro/inc/asuro/time.h ****  * Wenn diese Funktion aufgerufen wird, geht sie davon aus, dass Interrupts
 309:../../libtinyasuro/inc/asuro/time.h ****  * global freigeschaltet sind - wenn nicht findet die globale Interruptfreigabe
 310:../../libtinyasuro/inc/asuro/time.h ****  * vor Eintritt in den Idle-Mode statt.
 311:../../libtinyasuro/inc/asuro/time.h ****  * \endif
 312:../../libtinyasuro/inc/asuro/time.h ****  *
 313:../../libtinyasuro/inc/asuro/time.h ****  * \if en
 314:../../libtinyasuro/inc/asuro/time.h ****  * Puts the microcontroller into idle mode until the next interrupt occurs.
 315:../../libtinyasuro/inc/asuro/time.h ****  *
 316:../../libtinyasuro/inc/asuro/time.h ****  * This function expects interrupts to be globally enabled if it gets called.
 317:../../libtinyasuro/inc/asuro/time.h ****  * If not, the global interrupt enable bit will be set before entering the sleep
 318:../../libtinyasuro/inc/asuro/time.h ****  * mode and remain in this state after the function returns.
 319:../../libtinyasuro/inc/asuro/time.h ****  * \endif
 320:../../libtinyasuro/inc/asuro/time.h ****  */
 321:../../libtinyasuro/inc/asuro/time.h **** extern void sleepUntilInterrupt(void);
 322:../../libtinyasuro/inc/asuro/time.h **** 
 323:../../libtinyasuro/inc/asuro/time.h **** /**
 324:../../libtinyasuro/inc/asuro/time.h ****  * \if de
 325:../../libtinyasuro/inc/asuro/time.h ****  * Verhält sich wie sleep(), verwendet als Zeitbasis aber Millisekunden
 326:../../libtinyasuro/inc/asuro/time.h ****  *
 327:../../libtinyasuro/inc/asuro/time.h ****  * @param ms die Anzahl der Millisekunden die der Prozessor "schlafend"
 328:../../libtinyasuro/inc/asuro/time.h ****  *           verbringen soll
 329:../../libtinyasuro/inc/asuro/time.h ****  * \endif
 330:../../libtinyasuro/inc/asuro/time.h ****  *
 331:../../libtinyasuro/inc/asuro/time.h ****  * \if en
 332:../../libtinyasuro/inc/asuro/time.h ****  * Behaves like sleep() but uses milliseconds as timebase.
 333:../../libtinyasuro/inc/asuro/time.h ****  *
 334:../../libtinyasuro/inc/asuro/time.h ****  * @param ms the time the microcontroller will be halted, measured in
 335:../../libtinyasuro/inc/asuro/time.h ****  *           milliseconds
 336:../../libtinyasuro/inc/asuro/time.h ****  * \endif
 337:../../libtinyasuro/inc/asuro/time.h ****  */
 338:../../libtinyasuro/inc/asuro/time.h **** #ifdef __DOXYGEN__
 339:../../libtinyasuro/inc/asuro/time.h **** void msleep(uint16_t ms);
 340:../../libtinyasuro/inc/asuro/time.h **** #else
 341:../../libtinyasuro/inc/asuro/time.h **** static ALWAYS_INLINE void msleep(uint16_t ms);
 342:../../libtinyasuro/inc/asuro/time.h **** #endif
 343:../../libtinyasuro/inc/asuro/time.h **** 
 344:../../libtinyasuro/inc/asuro/time.h **** void msleep(uint16_t ms) {
 345:../../libtinyasuro/inc/asuro/time.h ****     for (; ms > 0; ms--) {
 346:../../libtinyasuro/inc/asuro/time.h ****         sleep(36);
  53               		.loc 2 346 0
  54 0018 84E2      		ldi r24,lo8(36)	 ;  26	movqi_insn/2	[length = 1]
  55 001a 00D0      		rcall sleep	 ;  27	call_insn/2	[length = 1]
  56               	.LVL6:
 345:../../libtinyasuro/inc/asuro/time.h ****         sleep(36);
  57               		.loc 2 345 0
  58 001c 2197      		sbiw r28,1	 ;  28	addhi3_clobber/1	[length = 1]
  59               	.LVL7:
  60 001e 2097      		sbiw r28,0	 ;  32	*cmphi/1	[length = 1]
  61 0020 01F4      		brne .L4	 ;  33	branch	[length = 1]
  62               	.LVL8:
  63               	.L1:
  64               	/* epilogue start */
  65               	.LBE13:
  66               	.LBE12:
  15:helpers.h     **** 		msleep(pause);
  16:helpers.h     **** }
  67               		.loc 1 16 0
  68 0022 DF91      		pop r29	 ;  54	popqi	[length = 1]
  69 0024 CF91      		pop r28	 ;  55	popqi	[length = 1]
  70 0026 0895      		ret	 ;  56	return_from_epilogue	[length = 1]
  71               		.cfi_endproc
  72               	.LFE3:
  74               		.section	.text.startup.main,"ax",@progbits
  75               	.global	main
  77               	main:
  78               	.LFB8:
  79               		.file 3 "main.c"
   1:main.c        **** #define SWITCH(X) 1<<X
   2:main.c        **** 
   3:main.c        **** #include <asuro/asuro.h>
   4:main.c        **** #include "helpers.h"
   5:main.c        **** #include <stdlib.h>
   6:main.c        **** 
   7:main.c        **** void main(void) {
  80               		.loc 3 7 0
  81               		.cfi_startproc
  82 0000 CF93      		push r28	 ;  321	pushqi1/1	[length = 1]
  83               	.LCFI2:
  84               		.cfi_def_cfa_offset 3
  85               		.cfi_offset 28, -2
  86 0002 DF93      		push r29	 ;  322	pushqi1/1	[length = 1]
  87               	.LCFI3:
  88               		.cfi_def_cfa_offset 4
  89               		.cfi_offset 29, -3
  90               		 ; SP -= 4	 ;  326	*addhi3_sp	[length = 2]
  91 0004 00D0      		rcall .
  92 0006 00D0      		rcall .
  93               	.LCFI4:
  94               		.cfi_def_cfa_offset 8
  95 0008 CDB7      		in r28,__SP_L__	 ;  327	*movhi/8	[length = 2]
  96 000a DEB7      		in r29,__SP_H__
  97               	.LCFI5:
  98               		.cfi_def_cfa_register 28
  99               	/* prologue: function */
 100               	/* frame size = 4 */
 101               	/* stack size = 6 */
 102               	.L__stack_usage = 6
   8:main.c        ****     Init();
 103               		.loc 3 8 0
 104 000c 00D0      		rcall Init	 ;  79	call_insn/2	[length = 1]
 105               	.LVL9:
   9:main.c        **** 	int x = 160;
  10:main.c        **** 	int y = 200;
  11:main.c        **** 	int i = -1;
 106               		.loc 3 11 0
 107 000e CC24      		clr r12	 ;  337	*reload_inhi	[length = 3]
 108 0010 CA94      		dec r12
 109 0012 DC2C      		mov r13,r12
  10:main.c        **** 	int i = -1;
 110               		.loc 3 10 0
 111 0014 48EC      		ldi r20,lo8(-56)	 ;  338	*reload_inhi	[length = 3]
 112 0016 E42E      		mov r14,r20
 113 0018 F12C      		mov r15,__zero_reg__
   9:main.c        **** 	int x = 160;
 114               		.loc 3 9 0
 115 001a 00EA      		ldi r16,lo8(-96)	 ;  73	*movhi/5	[length = 2]
 116 001c 10E0      		ldi r17,0
 117               	.LBB14:
  12:main.c        **** 	
  13:main.c        **** 	while (1) {  	//Hauptschleife
  14:main.c        **** 		i++;
  15:main.c        **** 		char sensor = PollSwitch();
  16:main.c        **** 		sensor &= 0b00111111;
  17:main.c        **** 		
  18:main.c        **** 		MotorDir(FWD, FWD); //Werkeinstellung
  19:main.c        **** 		MotorSpeed(170, 130); 
  20:main.c        **** 		
  21:main.c        **** 		
  22:main.c        **** 		if (sensor > 0) //Abfrage der sechs Drucksensoren -> backwards
  23:main.c        **** 		{
  24:main.c        **** 			 MotorDir(BWD, BWD); 
  25:main.c        **** 			 MotorSpeed(80, 200);
  26:main.c        **** 			 StatusLED(RED);
  27:main.c        **** 			 msleep(1500);
  28:main.c        **** 		}
  29:main.c        **** 		
  30:main.c        **** 		uint16_t data[] = {0,0};
  31:main.c        **** 		LineData(data);
  32:main.c        **** 		
  33:main.c        **** 		while (((data[LEFT] > 40) || (data[RIGHT] > 40)) && (x > 10)) //Geschwindigkeit geringer bei Lich
  34:main.c        **** 		{	
  35:main.c        **** 			StatusLED(YELLOW);
  36:main.c        **** 			x -= 5;
  37:main.c        **** 			y -= 5;
  38:main.c        **** 			MotorSpeed(x, y);
  39:main.c        **** 			LineData(data);
  40:main.c        **** 		} 
  41:main.c        **** 		while ((data[LEFT] > 100) || (data[RIGHT] > 100)) //Geschwindigkeit 0 bei Licht über 100E
  42:main.c        **** 		{	
  43:main.c        **** 			stopAsuro(500);
  44:main.c        **** 			LineData(data);
  45:main.c        **** 		} 
  46:main.c        **** 		
  47:main.c        **** 		if ( (i % 1000) == 0) {
 118               		.loc 3 47 0
 119 001e 58EE      		ldi r21,lo8(-24)	 ;  339	*reload_inhi	[length = 4]
 120 0020 A52E      		mov r10,r21
 121 0022 53E0      		ldi r21,lo8(3)
 122 0024 B52E      		mov r11,r21
 123               	.LBB15:
  48:main.c        **** 			int ran;
  49:main.c        **** 			ran = rand() % 2;
 124               		.loc 3 49 0
 125 0026 62E0      		ldi r22,lo8(2)	 ;  340	*reload_inhi	[length = 3]
 126 0028 862E      		mov r8,r22
 127 002a 912C      		mov r9,__zero_reg__
 128               	.LVL10:
 129               	.L26:
 130               	.LBE15:
  14:main.c        **** 		char sensor = PollSwitch();
 131               		.loc 3 14 0
 132 002c 8FEF      		ldi r24,-1	 ;  87	addhi3_clobber/3	[length = 3]
 133 002e C81A      		sub r12,r24
 134 0030 D80A      		sbc r13,r24
 135               	.LVL11:
  15:main.c        **** 		sensor &= 0b00111111;
 136               		.loc 3 15 0
 137 0032 00D0      		rcall PollSwitch	 ;  89	call_value_insn/2	[length = 1]
 138               	.LVL12:
 139 0034 782E      		mov r7,r24	 ;  90	movqi_insn/1	[length = 1]
 140               	.LVL13:
  18:main.c        **** 		MotorSpeed(170, 130); 
 141               		.loc 3 18 0
 142 0036 60E2      		ldi r22,lo8(32)	 ;  93	movqi_insn/2	[length = 1]
 143 0038 80E2      		ldi r24,lo8(32)	 ;  94	movqi_insn/2	[length = 1]
 144 003a 00D0      		rcall MotorDir	 ;  95	call_insn/2	[length = 1]
 145               	.LVL14:
  19:main.c        **** 		
 146               		.loc 3 19 0
 147 003c 62E8      		ldi r22,lo8(-126)	 ;  96	movqi_insn/2	[length = 1]
 148 003e 8AEA      		ldi r24,lo8(-86)	 ;  97	movqi_insn/2	[length = 1]
 149 0040 00D0      		rcall MotorSpeed	 ;  98	call_insn/2	[length = 1]
 150               	.LVL15:
  16:main.c        **** 		
 151               		.loc 3 16 0
 152 0042 872D      		mov r24,r7	 ;  317	movqi_insn/1	[length = 1]
 153 0044 8F73      		andi r24,lo8(63)	 ;  99	andqi3/2	[length = 1]
 154               	.LVL16:
  22:main.c        **** 		{
 155               		.loc 3 22 0
 156 0046 01F4      		brne .L10	 ;  101	branch	[length = 1]
 157               	.LVL17:
 158               	.L12:
  30:main.c        **** 		LineData(data);
 159               		.loc 3 30 0
 160 0048 1A82      		std Y+2,__zero_reg__	 ;  103	*movhi/4	[length = 2]
 161 004a 1982      		std Y+1,__zero_reg__
 162 004c 1C82      		std Y+4,__zero_reg__	 ;  104	*movhi/4	[length = 2]
 163 004e 1B82      		std Y+3,__zero_reg__
 164 0050 00C0      		rjmp .L34	 ;  341	jump	[length = 1]
 165               	.LVL18:
 166               	.L10:
  24:main.c        **** 			 MotorSpeed(80, 200);
 167               		.loc 3 24 0
 168 0052 60E1      		ldi r22,lo8(16)	 ;  111	movqi_insn/2	[length = 1]
 169 0054 80E1      		ldi r24,lo8(16)	 ;  112	movqi_insn/2	[length = 1]
 170               	.LVL19:
 171 0056 00D0      		rcall MotorDir	 ;  113	call_insn/2	[length = 1]
 172               	.LVL20:
  25:main.c        **** 			 StatusLED(RED);
 173               		.loc 3 25 0
 174 0058 68EC      		ldi r22,lo8(-56)	 ;  114	movqi_insn/2	[length = 1]
 175 005a 80E5      		ldi r24,lo8(80)	 ;  115	movqi_insn/2	[length = 1]
 176 005c 00D0      		rcall MotorSpeed	 ;  116	call_insn/2	[length = 1]
 177               	.LVL21:
  26:main.c        **** 			 msleep(1500);
 178               		.loc 3 26 0
 179 005e 82E0      		ldi r24,lo8(2)	 ;  117	movqi_insn/2	[length = 1]
 180 0060 00D0      		rcall StatusLED	 ;  118	call_insn/2	[length = 1]
 181               	.LVL22:
 182 0062 2CED      		ldi r18,lo8(-36)	 ;  336	*reload_inhi	[length = 4]
 183 0064 622E      		mov r6,r18
 184 0066 25E0      		ldi r18,lo8(5)
 185 0068 722E      		mov r7,r18
 186               	.LVL23:
 187               	.L13:
 188               	.LBB16:
 189               	.LBB17:
 190               		.loc 2 346 0
 191 006a 84E2      		ldi r24,lo8(36)	 ;  123	movqi_insn/2	[length = 1]
 192 006c 00D0      		rcall sleep	 ;  124	call_insn/2	[length = 1]
 193               	.LVL24:
 194 006e 81E0      		ldi r24,1	 ;  128	addhi3_clobber/3	[length = 3]
 195 0070 681A      		sub r6,r24
 196 0072 7108      		sbc r7,__zero_reg__
 197               	.LVL25:
 345:../../libtinyasuro/inc/asuro/time.h ****         sleep(36);
 198               		.loc 2 345 0
 199 0074 6114      		cp r6,__zero_reg__	 ;  130	*cmphi/2	[length = 2]
 200 0076 7104      		cpc r7,__zero_reg__
 201 0078 01F4      		brne .L13	 ;  131	branch	[length = 1]
 202 007a 00C0      		rjmp .L12	 ;  344	jump	[length = 1]
 203               	.LVL26:
 204               	.L35:
 205               	.LBE17:
 206               	.LBE16:
  33:main.c        **** 		{	
 207               		.loc 3 33 0 discriminator 3
 208 007c 8B81      		ldd r24,Y+3	 ;  158	*movhi/3	[length = 2]
 209 007e 9C81      		ldd r25,Y+4
 210 0080 8997      		sbiw r24,41	 ;  159	*cmphi/6	[length = 1]
 211 0082 00F0      		brlo .L15	 ;  160	branch	[length = 1]
 212               	.L14:
  33:main.c        **** 		{	
 213               		.loc 3 33 0 is_stmt 0 discriminator 2
 214 0084 0B30      		cpi r16,11	 ;  167	*cmphi/6	[length = 2]
 215 0086 1105      		cpc r17,__zero_reg__
 216 0088 04F0      		brlt .L15	 ;  168	branch	[length = 1]
  35:main.c        **** 			x -= 5;
 217               		.loc 3 35 0 is_stmt 1
 218 008a 83E0      		ldi r24,lo8(3)	 ;  139	movqi_insn/2	[length = 1]
 219 008c 00D0      		rcall StatusLED	 ;  140	call_insn/2	[length = 1]
 220               	.LVL27:
  36:main.c        **** 			y -= 5;
 221               		.loc 3 36 0
 222 008e 0550      		subi r16,5	 ;  141	addhi3_clobber/2	[length = 2]
 223 0090 1109      		sbc r17,__zero_reg__
 224               	.LVL28:
  37:main.c        **** 			MotorSpeed(x, y);
 225               		.loc 3 37 0
 226 0092 85E0      		ldi r24,5	 ;  143	addhi3_clobber/3	[length = 3]
 227 0094 E81A      		sub r14,r24
 228 0096 F108      		sbc r15,__zero_reg__
 229               	.LVL29:
  38:main.c        **** 			LineData(data);
 230               		.loc 3 38 0
 231 0098 6E2D      		mov r22,r14	 ;  145	movqi_insn/1	[length = 1]
 232 009a 802F      		mov r24,r16	 ;  146	movqi_insn/1	[length = 1]
 233 009c 00D0      		rcall MotorSpeed	 ;  147	call_insn/2	[length = 1]
 234               	.LVL30:
 235               	.L34:
  39:main.c        **** 		} 
 236               		.loc 3 39 0
 237 009e CE01      		movw r24,r28	 ;  319	*movhi/1	[length = 1]
 238 00a0 0196      		adiw r24,1	 ;  148	*addhi3/3	[length = 1]
 239 00a2 00D0      		rcall LineData	 ;  149	call_insn/2	[length = 1]
 240               	.LVL31:
  33:main.c        **** 		{	
 241               		.loc 3 33 0
 242 00a4 8981      		ldd r24,Y+1	 ;  154	*movhi/3	[length = 2]
 243 00a6 9A81      		ldd r25,Y+2
 244 00a8 8997      		sbiw r24,41	 ;  155	*cmphi/6	[length = 1]
 245 00aa 00F4      		brsh .L14	 ;  156	branch	[length = 1]
 246 00ac 00C0      		rjmp .L35	 ;  348	jump	[length = 1]
 247               	.L37:
  41:main.c        **** 		{	
 248               		.loc 3 41 0 discriminator 2
 249 00ae 8B81      		ldd r24,Y+3	 ;  185	*movhi/3	[length = 2]
 250 00b0 9C81      		ldd r25,Y+4
 251 00b2 8536      		cpi r24,101	 ;  186	*cmphi/6	[length = 2]
 252 00b4 9105      		cpc r25,__zero_reg__
 253 00b6 00F0      		brlo .L36	 ;  187	branch	[length = 1]
 254               	.L18:
  43:main.c        **** 			LineData(data);
 255               		.loc 3 43 0
 256 00b8 84EF      		ldi r24,lo8(-12)	 ;  174	*movhi/5	[length = 2]
 257 00ba 91E0      		ldi r25,lo8(1)
 258 00bc 00D0      		rcall stopAsuro	 ;  175	call_insn/2	[length = 1]
 259               	.LVL32:
  44:main.c        **** 		} 
 260               		.loc 3 44 0
 261 00be CE01      		movw r24,r28	 ;  320	*movhi/1	[length = 1]
 262 00c0 0196      		adiw r24,1	 ;  176	*addhi3/3	[length = 1]
 263 00c2 00D0      		rcall LineData	 ;  177	call_insn/2	[length = 1]
 264               	.LVL33:
 265               	.L15:
  41:main.c        **** 		{	
 266               		.loc 3 41 0 discriminator 1
 267 00c4 8981      		ldd r24,Y+1	 ;  181	*movhi/3	[length = 2]
 268 00c6 9A81      		ldd r25,Y+2
 269 00c8 8536      		cpi r24,101	 ;  182	*cmphi/6	[length = 2]
 270 00ca 9105      		cpc r25,__zero_reg__
 271 00cc 00F0      		brlo .L37	 ;  183	branch	[length = 1]
 272 00ce 00C0      		rjmp .L18	 ;  353	jump	[length = 1]
 273               	.L36:
  47:main.c        **** 			int ran;
 274               		.loc 3 47 0
 275 00d0 C601      		movw r24,r12	 ;  310	*movhi/1	[length = 1]
 276 00d2 B501      		movw r22,r10	 ;  311	*movhi/1	[length = 1]
 277 00d4 00D0      		rcall __divmodhi4	 ;  312	*divmodhi4_call	[length = 1]
 278 00d6 892B      		or r24,r25	 ;  191	*cmphi/1	[length = 1]
 279 00d8 01F4      		brne .L20	 ;  192	branch	[length = 1]
 280               	.LBB18:
 281               		.loc 3 49 0
 282 00da 00D0      		rcall rand	 ;  198	call_value_insn/2	[length = 1]
 283               	.LVL34:
 284 00dc B401      		movw r22,r8	 ;  306	*movhi/1	[length = 1]
 285 00de 00D0      		rcall __divmodhi4	 ;  307	*divmodhi4_call	[length = 1]
 286               	.LVL35:
  50:main.c        **** 			if (ran) {
 287               		.loc 3 50 0
 288 00e0 892B      		or r24,r25	 ;  204	*cmphi/1	[length = 1]
 289 00e2 01F0      		breq .L20	 ;  205	branch	[length = 1]
  51:main.c        **** 				StatusLED(YELLOW);
 290               		.loc 3 51 0
 291 00e4 83E0      		ldi r24,lo8(3)	 ;  207	movqi_insn/2	[length = 1]
 292 00e6 00D0      		rcall StatusLED	 ;  208	call_insn/2	[length = 1]
 293               	.LVL36:
  52:main.c        **** 				stopAsuro(1000);
 294               		.loc 3 52 0
 295 00e8 88EE      		ldi r24,lo8(-24)	 ;  285	*movhi/5	[length = 2]
 296 00ea 93E0      		ldi r25,lo8(3)
 297 00ec 00D0      		rcall stopAsuro	 ;  210	call_insn/2	[length = 1]
 298               	.LVL37:
 299               	.L20:
 300               	.LBE18:
  26:main.c        **** 			 msleep(1500);
 301               		.loc 3 26 0
 302 00ee 98EE      		ldi r25,lo8(-24)	 ;  335	*reload_inhi	[length = 4]
 303 00f0 692E      		mov r6,r25
 304 00f2 93E0      		ldi r25,lo8(3)
 305 00f4 792E      		mov r7,r25
 306               	.LVL38:
 307               	.L23:
 308               	.LBB19:
 309               	.LBB20:
 310               		.loc 2 346 0
 311 00f6 84E2      		ldi r24,lo8(36)	 ;  216	movqi_insn/2	[length = 1]
 312 00f8 00D0      		rcall sleep	 ;  217	call_insn/2	[length = 1]
 313               	.LVL39:
 314 00fa 81E0      		ldi r24,1	 ;  221	addhi3_clobber/3	[length = 3]
 315 00fc 681A      		sub r6,r24
 316 00fe 7108      		sbc r7,__zero_reg__
 317               	.LVL40:
 345:../../libtinyasuro/inc/asuro/time.h ****         sleep(36);
 318               		.loc 2 345 0
 319 0100 6114      		cp r6,__zero_reg__	 ;  222	*cmphi/2	[length = 2]
 320 0102 7104      		cpc r7,__zero_reg__
 321 0104 01F4      		brne .L23	 ;  223	branch	[length = 1]
 322               	.LBE20:
 323               	.LBE19:
  53:main.c        **** 			}
  54:main.c        **** 		}
  55:main.c        **** 		
  56:main.c        **** 		msleep(1000); 
  57:main.c        **** 		MotorSpeed(160, 200);
 324               		.loc 3 57 0
 325 0106 68EC      		ldi r22,lo8(-56)	 ;  232	movqi_insn/2	[length = 1]
 326 0108 80EA      		ldi r24,lo8(-96)	 ;  233	movqi_insn/2	[length = 1]
 327 010a 00D0      		rcall MotorSpeed	 ;  234	call_insn/2	[length = 1]
 328               	.LVL41:
  58:main.c        **** 		StatusLED(GREEN);
 329               		.loc 3 58 0
 330 010c 81E0      		ldi r24,lo8(1)	 ;  235	movqi_insn/2	[length = 1]
 331 010e 00D0      		rcall StatusLED	 ;  236	call_insn/2	[length = 1]
 332               	.LVL42:
  59:main.c        **** 		BackLED(OFF, OFF);
 333               		.loc 3 59 0
 334 0110 60E0      		ldi r22,0	 ;  237	movqi_insn/1	[length = 1]
 335 0112 80E0      		ldi r24,0	 ;  238	movqi_insn/1	[length = 1]
 336 0114 00D0      		rcall BackLED	 ;  239	call_insn/2	[length = 1]
 337               	.LVL43:
 338 0116 84EF      		ldi r24,lo8(-12)	 ;  334	*reload_inhi	[length = 4]
 339 0118 682E      		mov r6,r24
 340 011a 7724      		clr r7
 341 011c 7394      		inc r7
 342               	.LVL44:
 343               	.L25:
 344               	.LBB21:
 345               	.LBB22:
 346               		.loc 2 346 0
 347 011e 84E2      		ldi r24,lo8(36)	 ;  244	movqi_insn/2	[length = 1]
 348 0120 00D0      		rcall sleep	 ;  245	call_insn/2	[length = 1]
 349               	.LVL45:
 350 0122 81E0      		ldi r24,1	 ;  249	addhi3_clobber/3	[length = 3]
 351 0124 681A      		sub r6,r24
 352 0126 7108      		sbc r7,__zero_reg__
 353               	.LVL46:
 345:../../libtinyasuro/inc/asuro/time.h ****         sleep(36);
 354               		.loc 2 345 0
 355 0128 6114      		cp r6,__zero_reg__	 ;  250	*cmphi/2	[length = 2]
 356 012a 7104      		cpc r7,__zero_reg__
 357 012c 01F4      		brne .L25	 ;  251	branch	[length = 1]
 358 012e 00C0      		rjmp .L26	 ;  356	jump	[length = 1]
 359               	.LBE22:
 360               	.LBE21:
 361               	.LBE14:
 362               		.cfi_endproc
 363               	.LFE8:
 365               		.text
 366               	.Letext0:
 367               		.file 4 "/usr/lib/avr/include/stdint.h"
 368               		.file 5 "../../libtinyasuro/inc/asuro/motor.h"
 369               		.file 6 "../../libtinyasuro/inc/asuro/led.h"
 370               		.file 7 "/usr/lib/avr/include/stdlib.h"
 371               		.file 8 "../../libtinyasuro/inc/asuro/switches.h"
 372               		.file 9 "../../libtinyasuro/inc/asuro/sensors.h"
 373               		.file 10 "../../libtinyasuro/inc/asuro/asuro.h"