
main.elf:     file format elf32-avr

Sections:
Idx Name          Size      VMA       LMA       File off  Algn
  0 .text         000003dc  00000000  00000000  00000094  2**1
                  CONTENTS, ALLOC, LOAD, READONLY, CODE
  1 .data         00000000  00800060  000003dc  00000470  2**0
                  CONTENTS, ALLOC, LOAD, DATA
  2 .bss          0000000b  00800060  00800060  00000470  2**0
                  ALLOC
  3 .comment      00000022  00000000  00000000  00000470  2**0
                  CONTENTS, READONLY
  4 .debug_aranges 000001c0  00000000  00000000  00000492  2**0
                  CONTENTS, READONLY, DEBUGGING
  5 .debug_info   00001434  00000000  00000000  00000652  2**0
                  CONTENTS, READONLY, DEBUGGING
  6 .debug_abbrev 00000a63  00000000  00000000  00001a86  2**0
                  CONTENTS, READONLY, DEBUGGING
  7 .debug_line   000007ae  00000000  00000000  000024e9  2**0
                  CONTENTS, READONLY, DEBUGGING
  8 .debug_frame  0000038c  00000000  00000000  00002c98  2**2
                  CONTENTS, READONLY, DEBUGGING
  9 .debug_str    000005cd  00000000  00000000  00003024  2**0
                  CONTENTS, READONLY, DEBUGGING
 10 .debug_loc    0000087c  00000000  00000000  000035f1  2**0
                  CONTENTS, READONLY, DEBUGGING
 11 .debug_ranges 000001a0  00000000  00000000  00003e6d  2**0
                  CONTENTS, READONLY, DEBUGGING

Disassembly of section .text:

00000000 <__vectors>:
   0:	12 c0       	rjmp	.+36     	; 0x26 <__ctors_end>
   2:	21 c0       	rjmp	.+66     	; 0x46 <__bad_interrupt>
   4:	50 c1       	rjmp	.+672    	; 0x2a6 <__vector_2>
   6:	1f c0       	rjmp	.+62     	; 0x46 <__bad_interrupt>
   8:	6e c1       	rjmp	.+732    	; 0x2e6 <__vector_4>
   a:	1d c0       	rjmp	.+58     	; 0x46 <__bad_interrupt>
   c:	1c c0       	rjmp	.+56     	; 0x46 <__bad_interrupt>
   e:	1b c0       	rjmp	.+54     	; 0x46 <__bad_interrupt>
  10:	1a c0       	rjmp	.+52     	; 0x46 <__bad_interrupt>
  12:	19 c0       	rjmp	.+50     	; 0x46 <__bad_interrupt>
  14:	18 c0       	rjmp	.+48     	; 0x46 <__bad_interrupt>
  16:	17 c0       	rjmp	.+46     	; 0x46 <__bad_interrupt>
  18:	16 c0       	rjmp	.+44     	; 0x46 <__bad_interrupt>
  1a:	15 c0       	rjmp	.+42     	; 0x46 <__bad_interrupt>
  1c:	dc c0       	rjmp	.+440    	; 0x1d6 <__vector_14>
  1e:	13 c0       	rjmp	.+38     	; 0x46 <__bad_interrupt>
  20:	12 c0       	rjmp	.+36     	; 0x46 <__bad_interrupt>
  22:	11 c0       	rjmp	.+34     	; 0x46 <__bad_interrupt>
  24:	10 c0       	rjmp	.+32     	; 0x46 <__bad_interrupt>

00000026 <__ctors_end>:
  26:	11 24       	eor	r1, r1
  28:	1f be       	out	0x3f, r1	; 63
  2a:	cf e5       	ldi	r28, 0x5F	; 95
  2c:	d4 e0       	ldi	r29, 0x04	; 4
  2e:	de bf       	out	0x3e, r29	; 62
  30:	cd bf       	out	0x3d, r28	; 61

00000032 <__do_clear_bss>:
  32:	20 e0       	ldi	r18, 0x00	; 0
  34:	a0 e6       	ldi	r26, 0x60	; 96
  36:	b0 e0       	ldi	r27, 0x00	; 0
  38:	01 c0       	rjmp	.+2      	; 0x3c <.do_clear_bss_start>

0000003a <.do_clear_bss_loop>:
  3a:	1d 92       	st	X+, r1

0000003c <.do_clear_bss_start>:
  3c:	ab 36       	cpi	r26, 0x6B	; 107
  3e:	b2 07       	cpc	r27, r18
  40:	e1 f7       	brne	.-8      	; 0x3a <.do_clear_bss_loop>
  42:	02 d0       	rcall	.+4      	; 0x48 <main>
  44:	c9 c1       	rjmp	.+914    	; 0x3d8 <_exit>

00000046 <__bad_interrupt>:
  46:	dc cf       	rjmp	.-72     	; 0x0 <__vectors>

00000048 <main>:
 * Beschreibt hier was euer Programm macht!
 */

#include <asuro/asuro.h>

void main(void) {
  48:	cf 93       	push	r28
  4a:	df 93       	push	r29
  4c:	00 d0       	rcall	.+0      	; 0x4e <main+0x6>
  4e:	00 d0       	rcall	.+0      	; 0x50 <main+0x8>
  50:	cd b7       	in	r28, 0x3d	; 61
  52:	de b7       	in	r29, 0x3e	; 62
    Init();
  54:	4f d0       	rcall	.+158    	; 0xf4 <Init>
	
	StatusLED(YELLOW);
  56:	83 e0       	ldi	r24, 0x03	; 3
  58:	54 d0       	rcall	.+168    	; 0x102 <StatusLED>

	uint16_t data[2];
	uint16_t black[2];
	
	//set black value
	LineData(data);
  5a:	ce 01       	movw	r24, r28
  5c:	01 96       	adiw	r24, 0x01	; 1
  5e:	a2 d0       	rcall	.+324    	; 0x1a4 <LineData>
	black[LEFT] = data[LEFT] + 150;
  60:	e9 80       	ldd	r14, Y+1	; 0x01
  62:	fa 80       	ldd	r15, Y+2	; 0x02
  64:	86 e9       	ldi	r24, 0x96	; 150
  66:	e8 0e       	add	r14, r24
  68:	f1 1c       	adc	r15, r1
	black[RIGHT] = data[RIGHT] + 150;
  6a:	cb 80       	ldd	r12, Y+3	; 0x03
  6c:	dc 80       	ldd	r13, Y+4	; 0x04
  6e:	86 e9       	ldi	r24, 0x96	; 150
  70:	c8 0e       	add	r12, r24
  72:	d1 1c       	adc	r13, r1

    while (1) {
		//updated sensor value
		LineData(data);
  74:	ce 01       	movw	r24, r28
  76:	01 96       	adiw	r24, 0x01	; 1
  78:	95 d0       	rcall	.+298    	; 0x1a4 <LineData>
        if((black[LEFT] < data[LEFT]) && (black[RIGHT] < data[RIGHT])) { //if not white
  7a:	89 81       	ldd	r24, Y+1	; 0x01
  7c:	9a 81       	ldd	r25, Y+2	; 0x02
  7e:	e8 16       	cp	r14, r24
  80:	f9 06       	cpc	r15, r25
  82:	68 f4       	brcc	.+26     	; 0x9e <main+0x56>
  84:	8b 81       	ldd	r24, Y+3	; 0x03
  86:	9c 81       	ldd	r25, Y+4	; 0x04
  88:	c8 16       	cp	r12, r24
  8a:	d9 06       	cpc	r13, r25
  8c:	40 f4       	brcc	.+16     	; 0x9e <main+0x56>
			MotorDir(FWD, RWD);
  8e:	60 e1       	ldi	r22, 0x10	; 16
  90:	80 e2       	ldi	r24, 0x20	; 32
  92:	62 d0       	rcall	.+196    	; 0x158 <MotorDir>
			MotorSpeed(90, 90);
  94:	6a e5       	ldi	r22, 0x5A	; 90
  96:	8a e5       	ldi	r24, 0x5A	; 90
  98:	6b d0       	rcall	.+214    	; 0x170 <MotorSpeed>
			StatusLED(GREEN);
  9a:	81 e0       	ldi	r24, 0x01	; 1
  9c:	32 d0       	rcall	.+100    	; 0x102 <StatusLED>
		}
		if (data[LEFT] > data[RIGHT]) { //if left is brighter than right
  9e:	29 81       	ldd	r18, Y+1	; 0x01
  a0:	3a 81       	ldd	r19, Y+2	; 0x02
  a2:	8b 81       	ldd	r24, Y+3	; 0x03
  a4:	9c 81       	ldd	r25, Y+4	; 0x04
  a6:	82 17       	cp	r24, r18
  a8:	93 07       	cpc	r25, r19
  aa:	40 f4       	brcc	.+16     	; 0xbc <main+0x74>
			MotorDir(FWD, FWD);
  ac:	60 e2       	ldi	r22, 0x20	; 32
  ae:	80 e2       	ldi	r24, 0x20	; 32
  b0:	53 d0       	rcall	.+166    	; 0x158 <MotorDir>
			MotorSpeed(0, 100);
  b2:	64 e6       	ldi	r22, 0x64	; 100
  b4:	80 e0       	ldi	r24, 0x00	; 0
  b6:	5c d0       	rcall	.+184    	; 0x170 <MotorSpeed>
			StatusLED(RED);
  b8:	82 e0       	ldi	r24, 0x02	; 2
  ba:	23 d0       	rcall	.+70     	; 0x102 <StatusLED>
		}  
		if (data[RIGHT] > data[LEFT]) { // if right is brighter than left
  bc:	2b 81       	ldd	r18, Y+3	; 0x03
  be:	3c 81       	ldd	r19, Y+4	; 0x04
  c0:	89 81       	ldd	r24, Y+1	; 0x01
  c2:	9a 81       	ldd	r25, Y+2	; 0x02
  c4:	82 17       	cp	r24, r18
  c6:	93 07       	cpc	r25, r19
  c8:	58 f4       	brcc	.+22     	; 0xe0 <main+0x98>
			MotorDir(FWD, FWD);
  ca:	60 e2       	ldi	r22, 0x20	; 32
  cc:	80 e2       	ldi	r24, 0x20	; 32
  ce:	44 d0       	rcall	.+136    	; 0x158 <MotorDir>
			MotorSpeed(100, 0);
  d0:	60 e0       	ldi	r22, 0x00	; 0
  d2:	84 e6       	ldi	r24, 0x64	; 100
  d4:	4d d0       	rcall	.+154    	; 0x170 <MotorSpeed>
			StatusLED(YELLOW);
  d6:	83 e0       	ldi	r24, 0x03	; 3
  d8:	14 d0       	rcall	.+40     	; 0x102 <StatusLED>
			BackLED(ON, ON);
  da:	61 e0       	ldi	r22, 0x01	; 1
  dc:	81 e0       	ldi	r24, 0x01	; 1
  de:	31 d0       	rcall	.+98     	; 0x142 <BackLED>
 * Beschreibt hier was euer Programm macht!
 */

#include <asuro/asuro.h>

void main(void) {
  e0:	05 e0       	ldi	r16, 0x05	; 5
  e2:	10 e0       	ldi	r17, 0x00	; 0
static ALWAYS_INLINE void msleep(uint16_t ms);
#endif

void msleep(uint16_t ms) {
    for (; ms > 0; ms--) {
        sleep(36);
  e4:	84 e2       	ldi	r24, 0x24	; 36
  e6:	13 d1       	rcall	.+550    	; 0x30e <sleep>
  e8:	01 50       	subi	r16, 0x01	; 1
  ea:	11 09       	sbc	r17, r1
#else
static ALWAYS_INLINE void msleep(uint16_t ms);
#endif

void msleep(uint16_t ms) {
    for (; ms > 0; ms--) {
  ec:	01 15       	cp	r16, r1
  ee:	11 05       	cpc	r17, r1
  f0:	c9 f7       	brne	.-14     	; 0xe4 <main+0x9c>
  f2:	c0 cf       	rjmp	.-128    	; 0x74 <main+0x2c>

000000f4 <Init>:
  f4:	ea d0       	rcall	.+468    	; 0x2ca <Timer2Init>
  f6:	43 d0       	rcall	.+134    	; 0x17e <MotorInit>
  f8:	18 d0       	rcall	.+48     	; 0x12a <LEDInit>
  fa:	1e d1       	rcall	.+572    	; 0x338 <ADCInit>
  fc:	c1 d0       	rcall	.+386    	; 0x280 <SwitchInit>
  fe:	78 94       	sei
 100:	08 95       	ret

00000102 <StatusLED>:
 102:	c0 98       	cbi	0x18, 0	; 24
 104:	92 98       	cbi	0x12, 2	; 18
 106:	80 fd       	sbrc	r24, 0
 108:	c0 9a       	sbi	0x18, 0	; 24
 10a:	81 fd       	sbrc	r24, 1
 10c:	92 9a       	sbi	0x12, 2	; 18
 10e:	08 95       	ret

00000110 <BackLEDFast>:
 110:	2f b7       	in	r18, 0x3f	; 63
    return 1;
}

static __inline__ uint8_t __iCliRetVal(void)
{
    cli();
 112:	f8 94       	cli
 114:	88 23       	and	r24, r24
 116:	19 f0       	breq	.+6      	; 0x11e <BackLEDFast+0xe>
 118:	97 98       	cbi	0x12, 7	; 18
 11a:	a1 9a       	sbi	0x14, 1	; 20
 11c:	a0 9a       	sbi	0x14, 0	; 20
 11e:	95 b3       	in	r25, 0x15	; 21
 120:	9c 7f       	andi	r25, 0xFC	; 252
 122:	98 2b       	or	r25, r24
 124:	95 bb       	out	0x15, r25	; 21
    (void)__s;
}

static __inline__ void __iRestore(const  uint8_t *__s)
{
    SREG = *__s;
 126:	2f bf       	out	0x3f, r18	; 63
    __asm__ volatile ("" ::: "memory");
 128:	08 95       	ret

0000012a <LEDInit>:
 12a:	b8 9a       	sbi	0x17, 0	; 23
 12c:	81 b3       	in	r24, 0x11	; 17
 12e:	84 6c       	ori	r24, 0xC4	; 196
 130:	81 bb       	out	0x11, r24	; 17
 132:	96 98       	cbi	0x12, 6	; 18
 134:	97 98       	cbi	0x12, 7	; 18
 136:	a1 9a       	sbi	0x14, 1	; 20
 138:	a0 9a       	sbi	0x14, 0	; 20
 13a:	80 e0       	ldi	r24, 0x00	; 0
 13c:	e9 df       	rcall	.-46     	; 0x110 <BackLEDFast>
 13e:	81 e0       	ldi	r24, 0x01	; 1
 140:	e0 cf       	rjmp	.-64     	; 0x102 <StatusLED>

00000142 <BackLED>:
 142:	88 23       	and	r24, r24
 144:	11 f0       	breq	.+4      	; 0x14a <BackLED+0x8>
 146:	92 e0       	ldi	r25, 0x02	; 2
 148:	01 c0       	rjmp	.+2      	; 0x14c <BackLED+0xa>
 14a:	90 e0       	ldi	r25, 0x00	; 0
 14c:	81 e0       	ldi	r24, 0x01	; 1
 14e:	61 11       	cpse	r22, r1
 150:	01 c0       	rjmp	.+2      	; 0x154 <BackLED+0x12>
 152:	80 e0       	ldi	r24, 0x00	; 0
 154:	89 2b       	or	r24, r25
 156:	dc cf       	rjmp	.-72     	; 0x110 <BackLEDFast>

00000158 <MotorDir>:
 158:	2f b7       	in	r18, 0x3f	; 63
    return 1;
}

static __inline__ uint8_t __iCliRetVal(void)
{
    cli();
 15a:	f8 94       	cli
 15c:	92 b3       	in	r25, 0x12	; 18
 15e:	9f 7c       	andi	r25, 0xCF	; 207
 160:	89 2b       	or	r24, r25
 162:	82 bb       	out	0x12, r24	; 18
 164:	88 b3       	in	r24, 0x18	; 24
 166:	8f 7c       	andi	r24, 0xCF	; 207
 168:	68 2b       	or	r22, r24
 16a:	68 bb       	out	0x18, r22	; 24
    (void)__s;
}

static __inline__ void __iRestore(const  uint8_t *__s)
{
    SREG = *__s;
 16c:	2f bf       	out	0x3f, r18	; 63
    __asm__ volatile ("" ::: "memory");
 16e:	08 95       	ret

00000170 <MotorSpeed>:
 170:	9f b7       	in	r25, 0x3f	; 63
    return 1;
}

static __inline__ uint8_t __iCliRetVal(void)
{
    cli();
 172:	f8 94       	cli
 174:	1b bc       	out	0x2b, r1	; 43
 176:	8a bd       	out	0x2a, r24	; 42
 178:	68 bd       	out	0x28, r22	; 40
    (void)__s;
}

static __inline__ void __iRestore(const  uint8_t *__s)
{
    SREG = *__s;
 17a:	9f bf       	out	0x3f, r25	; 63
    __asm__ volatile ("" ::: "memory");
 17c:	08 95       	ret

0000017e <MotorInit>:
 17e:	87 b3       	in	r24, 0x17	; 23
 180:	86 63       	ori	r24, 0x36	; 54
 182:	87 bb       	out	0x17, r24	; 23
 184:	81 b3       	in	r24, 0x11	; 17
 186:	80 63       	ori	r24, 0x30	; 48
 188:	81 bb       	out	0x11, r24	; 17
 18a:	81 ea       	ldi	r24, 0xA1	; 161
 18c:	8f bd       	out	0x2f, r24	; 47
 18e:	82 e0       	ldi	r24, 0x02	; 2
 190:	8e bd       	out	0x2e, r24	; 46
 192:	89 b7       	in	r24, 0x39	; 57
 194:	83 7c       	andi	r24, 0xC3	; 195
 196:	89 bf       	out	0x39, r24	; 57
 198:	60 e2       	ldi	r22, 0x20	; 32
 19a:	80 e2       	ldi	r24, 0x20	; 32
 19c:	dd df       	rcall	.-70     	; 0x158 <MotorDir>
 19e:	60 e0       	ldi	r22, 0x00	; 0
 1a0:	80 e0       	ldi	r24, 0x00	; 0
 1a2:	e6 cf       	rjmp	.-52     	; 0x170 <MotorSpeed>

000001a4 <LineData>:
 1a4:	1f 93       	push	r17
 1a6:	cf 93       	push	r28
 1a8:	df 93       	push	r29
 1aa:	ec 01       	movw	r28, r24
 1ac:	cb d0       	rcall	.+406    	; 0x344 <__ADCBlockEnter>
 1ae:	18 2f       	mov	r17, r24
 1b0:	83 e4       	ldi	r24, 0x43	; 67
 1b2:	f0 d0       	rcall	.+480    	; 0x394 <ADCSelectChannel>
 1b4:	f8 d0       	rcall	.+496    	; 0x3a6 <ADCMeasure>
 1b6:	24 b1       	in	r18, 0x04	; 4
 1b8:	35 b1       	in	r19, 0x05	; 5
 1ba:	39 83       	std	Y+1, r19	; 0x01
 1bc:	28 83       	st	Y, r18
 1be:	82 e4       	ldi	r24, 0x42	; 66
 1c0:	e9 d0       	rcall	.+466    	; 0x394 <ADCSelectChannel>
 1c2:	f1 d0       	rcall	.+482    	; 0x3a6 <ADCMeasure>
 1c4:	24 b1       	in	r18, 0x04	; 4
 1c6:	35 b1       	in	r19, 0x05	; 5
 1c8:	3b 83       	std	Y+3, r19	; 0x03
 1ca:	2a 83       	std	Y+2, r18	; 0x02
 1cc:	81 2f       	mov	r24, r17
 1ce:	df 91       	pop	r29
 1d0:	cf 91       	pop	r28
 1d2:	1f 91       	pop	r17
 1d4:	c9 c0       	rjmp	.+402    	; 0x368 <__ADCBlockLeave>

000001d6 <__vector_14>:
 1d6:	1f 92       	push	r1
 1d8:	0f 92       	push	r0
 1da:	0f b6       	in	r0, 0x3f	; 63
 1dc:	0f 92       	push	r0
 1de:	11 24       	eor	r1, r1
 1e0:	2f 93       	push	r18
 1e2:	3f 93       	push	r19
 1e4:	4f 93       	push	r20
 1e6:	5f 93       	push	r21
 1e8:	6f 93       	push	r22
 1ea:	7f 93       	push	r23
 1ec:	8f 93       	push	r24
 1ee:	9f 93       	push	r25
 1f0:	af 93       	push	r26
 1f2:	bf 93       	push	r27
 1f4:	ef 93       	push	r30
 1f6:	ff 93       	push	r31
 1f8:	87 b1       	in	r24, 0x07	; 7
 1fa:	78 94       	sei
 1fc:	81 36       	cpi	r24, 0x61	; 97
 1fe:	19 f0       	breq	.+6      	; 0x206 <__vector_14+0x30>
 200:	83 36       	cpi	r24, 0x63	; 99
 202:	a1 f0       	breq	.+40     	; 0x22c <__vector_14+0x56>
 204:	27 c0       	rjmp	.+78     	; 0x254 <__vector_14+0x7e>
 206:	80 91 63 00 	lds	r24, 0x0063
 20a:	82 fd       	sbrc	r24, 2
 20c:	02 c0       	rjmp	.+4      	; 0x212 <__vector_14+0x3c>
 20e:	80 e6       	ldi	r24, 0x60	; 96
 210:	01 c0       	rjmp	.+2      	; 0x214 <__vector_14+0x3e>
 212:	82 e6       	ldi	r24, 0x62	; 98
 214:	f8 94       	cli
 216:	95 b1       	in	r25, 0x05	; 5
 218:	90 93 65 00 	sts	0x0065, r25
 21c:	90 91 60 00 	lds	r25, 0x0060
 220:	90 93 64 00 	sts	0x0064, r25
 224:	91 e0       	ldi	r25, 0x01	; 1
 226:	90 93 68 00 	sts	0x0068, r25
 22a:	12 c0       	rjmp	.+36     	; 0x250 <__vector_14+0x7a>
 22c:	80 91 63 00 	lds	r24, 0x0063
 230:	80 ff       	sbrs	r24, 0
 232:	02 c0       	rjmp	.+4      	; 0x238 <__vector_14+0x62>
 234:	80 e6       	ldi	r24, 0x60	; 96
 236:	01 c0       	rjmp	.+2      	; 0x23a <__vector_14+0x64>
 238:	82 e6       	ldi	r24, 0x62	; 98
 23a:	f8 94       	cli
 23c:	95 b1       	in	r25, 0x05	; 5
 23e:	90 93 67 00 	sts	0x0067, r25
 242:	90 91 60 00 	lds	r25, 0x0060
 246:	90 93 66 00 	sts	0x0066, r25
 24a:	91 e0       	ldi	r25, 0x01	; 1
 24c:	90 93 62 00 	sts	0x0062, r25
 250:	78 94       	sei
 252:	04 c0       	rjmp	.+8      	; 0x25c <__vector_14+0x86>
 254:	95 b1       	in	r25, 0x05	; 5
 256:	90 93 60 00 	sts	0x0060, r25
 25a:	8f 5f       	subi	r24, 0xFF	; 255
 25c:	a8 d0       	rcall	.+336    	; 0x3ae <ADCInterruptEnable>
 25e:	ff 91       	pop	r31
 260:	ef 91       	pop	r30
 262:	bf 91       	pop	r27
 264:	af 91       	pop	r26
 266:	9f 91       	pop	r25
 268:	8f 91       	pop	r24
 26a:	7f 91       	pop	r23
 26c:	6f 91       	pop	r22
 26e:	5f 91       	pop	r21
 270:	4f 91       	pop	r20
 272:	3f 91       	pop	r19
 274:	2f 91       	pop	r18
 276:	0f 90       	pop	r0
 278:	0f be       	out	0x3f, r0	; 63
 27a:	0f 90       	pop	r0
 27c:	1f 90       	pop	r1
 27e:	18 95       	reti

00000280 <SwitchInit>:
 280:	9f b7       	in	r25, 0x3f	; 63
    return 1;
}

static __inline__ uint8_t __iCliRetVal(void)
{
    cli();
 282:	f8 94       	cli
 284:	8b b7       	in	r24, 0x3b	; 59
 286:	8f 77       	andi	r24, 0x7F	; 127
 288:	8b bf       	out	0x3b, r24	; 59
 28a:	85 b7       	in	r24, 0x35	; 53
 28c:	87 7f       	andi	r24, 0xF7	; 247
 28e:	84 60       	ori	r24, 0x04	; 4
 290:	85 bf       	out	0x35, r24	; 53
    (void)__s;
}

static __inline__ void __iRestore(const  uint8_t *__s)
{
    SREG = *__s;
 292:	9f bf       	out	0x3f, r25	; 63
 294:	a4 98       	cbi	0x14, 4	; 20
 296:	85 b3       	in	r24, 0x15	; 21
 298:	80 71       	andi	r24, 0x10	; 16
 29a:	85 bb       	out	0x15, r24	; 21
 29c:	8b 98       	cbi	0x11, 3	; 17
 29e:	93 98       	cbi	0x12, 3	; 18
 2a0:	10 92 69 00 	sts	0x0069, r1
 2a4:	08 95       	ret

000002a6 <__vector_2>:
 2a6:	1f 92       	push	r1
 2a8:	0f 92       	push	r0
 2aa:	0f b6       	in	r0, 0x3f	; 63
 2ac:	0f 92       	push	r0
 2ae:	11 24       	eor	r1, r1
 2b0:	8f 93       	push	r24
 2b2:	81 e0       	ldi	r24, 0x01	; 1
 2b4:	80 93 69 00 	sts	0x0069, r24
 2b8:	8b b7       	in	r24, 0x3b	; 59
 2ba:	8f 77       	andi	r24, 0x7F	; 127
 2bc:	8b bf       	out	0x3b, r24	; 59
 2be:	8f 91       	pop	r24
 2c0:	0f 90       	pop	r0
 2c2:	0f be       	out	0x3f, r0	; 63
 2c4:	0f 90       	pop	r0
 2c6:	1f 90       	pop	r1
 2c8:	18 95       	reti

000002ca <Timer2Init>:
 2ca:	12 bc       	out	0x22, r1	; 34
 2cc:	81 e0       	ldi	r24, 0x01	; 1
 2ce:	85 bd       	out	0x25, r24	; 37
 2d0:	89 b7       	in	r24, 0x39	; 57
 2d2:	80 64       	ori	r24, 0x40	; 64
 2d4:	89 bf       	out	0x39, r24	; 57
 2d6:	81 e9       	ldi	r24, 0x91	; 145
 2d8:	83 bd       	out	0x23, r24	; 35
 2da:	85 b5       	in	r24, 0x25	; 37
 2dc:	87 78       	andi	r24, 0x87	; 135
 2de:	85 bd       	out	0x25, r24	; 37
 2e0:	bb 9a       	sbi	0x17, 3	; 23
 2e2:	c3 98       	cbi	0x18, 3	; 24
 2e4:	08 95       	ret

000002e6 <__vector_4>:
 2e6:	1f 92       	push	r1
 2e8:	0f 92       	push	r0
 2ea:	0f b6       	in	r0, 0x3f	; 63
 2ec:	0f 92       	push	r0
 2ee:	11 24       	eor	r1, r1
 2f0:	8f 93       	push	r24
 2f2:	84 b5       	in	r24, 0x24	; 36
 2f4:	8b 5d       	subi	r24, 0xDB	; 219
 2f6:	84 bd       	out	0x24, r24	; 36
 2f8:	80 91 6a 00 	lds	r24, 0x006A
 2fc:	8f 5f       	subi	r24, 0xFF	; 255
 2fe:	80 93 6a 00 	sts	0x006A, r24
 302:	8f 91       	pop	r24
 304:	0f 90       	pop	r0
 306:	0f be       	out	0x3f, r0	; 63
 308:	0f 90       	pop	r0
 30a:	1f 90       	pop	r1
 30c:	18 95       	reti

0000030e <sleep>:
 30e:	f8 94       	cli
 310:	95 b7       	in	r25, 0x35	; 53
 312:	9f 70       	andi	r25, 0x0F	; 15
 314:	90 68       	ori	r25, 0x80	; 128
 316:	95 bf       	out	0x35, r25	; 53
 318:	78 94       	sei
 31a:	90 91 6a 00 	lds	r25, 0x006A
 31e:	89 0f       	add	r24, r25
 320:	90 91 6a 00 	lds	r25, 0x006A
 324:	98 17       	cp	r25, r24
 326:	11 f0       	breq	.+4      	; 0x32c <sleep+0x1e>
 328:	88 95       	sleep
 32a:	fa cf       	rjmp	.-12     	; 0x320 <sleep+0x12>
 32c:	f8 94       	cli
 32e:	85 b7       	in	r24, 0x35	; 53
 330:	8f 77       	andi	r24, 0x7F	; 127
 332:	85 bf       	out	0x35, r24	; 53
 334:	78 94       	sei
 336:	08 95       	ret

00000338 <ADCInit>:
 338:	8f ef       	ldi	r24, 0xFF	; 255
 33a:	80 93 61 00 	sts	0x0061, r24
 33e:	86 e0       	ldi	r24, 0x06	; 6
 340:	86 b9       	out	0x06, r24	; 6
 342:	08 95       	ret

00000344 <__ADCBlockEnter>:
 344:	2f b7       	in	r18, 0x3f	; 63
 346:	f8 94       	cli
 348:	87 b1       	in	r24, 0x07	; 7
 34a:	96 b1       	in	r25, 0x06	; 6
 34c:	39 2f       	mov	r19, r25
 34e:	38 78       	andi	r19, 0x88	; 136
 350:	31 f0       	breq	.+12     	; 0x35e <__ADCBlockEnter+0x1a>
 352:	93 ff       	sbrs	r25, 3
 354:	05 c0       	rjmp	.+10     	; 0x360 <__ADCBlockEnter+0x1c>
 356:	80 93 61 00 	sts	0x0061, r24
 35a:	86 e8       	ldi	r24, 0x86	; 134
 35c:	86 b9       	out	0x06, r24	; 6
 35e:	8f ef       	ldi	r24, 0xFF	; 255
 360:	2f bf       	out	0x3f, r18	; 63
 362:	36 99       	sbic	0x06, 6	; 6
 364:	fe cf       	rjmp	.-4      	; 0x362 <__ADCBlockEnter+0x1e>
 366:	08 95       	ret

00000368 <__ADCBlockLeave>:
 368:	3f b7       	in	r19, 0x3f	; 63
 36a:	f8 94       	cli
 36c:	8f 3f       	cpi	r24, 0xFF	; 255
 36e:	31 f4       	brne	.+12     	; 0x37c <__ADCBlockLeave+0x14>
 370:	80 91 61 00 	lds	r24, 0x0061
 374:	8f 3f       	cpi	r24, 0xFF	; 255
 376:	51 f0       	breq	.+20     	; 0x38c <__ADCBlockLeave+0x24>
 378:	2e ed       	ldi	r18, 0xDE	; 222
 37a:	01 c0       	rjmp	.+2      	; 0x37e <__ADCBlockLeave+0x16>
 37c:	26 ed       	ldi	r18, 0xD6	; 214
 37e:	97 b1       	in	r25, 0x07	; 7
 380:	98 27       	eor	r25, r24
 382:	90 7c       	andi	r25, 0xC0	; 192
 384:	09 f0       	breq	.+2      	; 0x388 <__ADCBlockLeave+0x20>
 386:	16 b8       	out	0x06, r1	; 6
 388:	87 b9       	out	0x07, r24	; 7
 38a:	01 c0       	rjmp	.+2      	; 0x38e <__ADCBlockLeave+0x26>
 38c:	20 e0       	ldi	r18, 0x00	; 0
 38e:	26 b9       	out	0x06, r18	; 6
 390:	3f bf       	out	0x3f, r19	; 63
 392:	08 95       	ret

00000394 <ADCSelectChannel>:
 394:	97 b1       	in	r25, 0x07	; 7
 396:	98 27       	eor	r25, r24
 398:	90 7c       	andi	r25, 0xC0	; 192
 39a:	09 f0       	breq	.+2      	; 0x39e <ADCSelectChannel+0xa>
 39c:	16 b8       	out	0x06, r1	; 6
 39e:	96 e8       	ldi	r25, 0x86	; 134
 3a0:	96 b9       	out	0x06, r25	; 6
 3a2:	87 b9       	out	0x07, r24	; 7
 3a4:	08 95       	ret

000003a6 <ADCMeasure>:
 3a6:	36 9a       	sbi	0x06, 6	; 6
 3a8:	36 99       	sbic	0x06, 6	; 6
 3aa:	fe cf       	rjmp	.-4      	; 0x3a8 <ADCMeasure+0x2>
 3ac:	08 95       	ret

000003ae <ADCInterruptEnable>:
 3ae:	2f b7       	in	r18, 0x3f	; 63
    return 1;
}

static __inline__ uint8_t __iCliRetVal(void)
{
    cli();
 3b0:	f8 94       	cli
 3b2:	96 b1       	in	r25, 0x06	; 6
 3b4:	97 ff       	sbrs	r25, 7
 3b6:	02 c0       	rjmp	.+4      	; 0x3bc <ADCInterruptEnable+0xe>
 3b8:	93 ff       	sbrs	r25, 3
 3ba:	0a c0       	rjmp	.+20     	; 0x3d0 <ADCInterruptEnable+0x22>
 3bc:	97 b1       	in	r25, 0x07	; 7
 3be:	98 27       	eor	r25, r24
 3c0:	90 7c       	andi	r25, 0xC0	; 192
 3c2:	09 f0       	breq	.+2      	; 0x3c6 <ADCInterruptEnable+0x18>
 3c4:	16 b8       	out	0x06, r1	; 6
 3c6:	36 99       	sbic	0x06, 6	; 6
 3c8:	16 b8       	out	0x06, r1	; 6
 3ca:	87 b9       	out	0x07, r24	; 7
 3cc:	9e ed       	ldi	r25, 0xDE	; 222
 3ce:	96 b9       	out	0x06, r25	; 6
 3d0:	80 93 61 00 	sts	0x0061, r24
    (void)__s;
}

static __inline__ void __iRestore(const  uint8_t *__s)
{
    SREG = *__s;
 3d4:	2f bf       	out	0x3f, r18	; 63
    __asm__ volatile ("" ::: "memory");
 3d6:	08 95       	ret

000003d8 <_exit>:
 3d8:	f8 94       	cli

000003da <__stop_program>:
 3da:	ff cf       	rjmp	.-2      	; 0x3da <__stop_program>
