   1               		.file	"main.c"
   2               	__SP_H__ = 0x3e
   3               	__SP_L__ = 0x3d
   4               	__SREG__ = 0x3f
   5               	__tmp_reg__ = 0
   6               	__zero_reg__ = 1
   7               		.text
   8               	.Ltext0:
   9               		.cfi_sections	.debug_frame
  10               		.section	.text.startup.main,"ax",@progbits
  11               	.global	main
  13               	main:
  14               	.LFB2:
  15               		.file 1 "main.c"
   1:main.c        **** 	
   2:main.c        **** // 	   			(K)iT lives!
   3:main.c        **** //*********************************************
   4:main.c        **** //*|x|**| |***| |****[___]****[_________]**|x|*
   5:main.c        **** //*|x|**| |***/ /*****| |*********| |******|x|*	 
   6:main.c        **** //*|x|**| |**/ /******| |*********| |******|x|*
   7:main.c        **** //*|x|**[     ]*******| |*********| |******|x|*
   8:main.c        **** //*|x|**| |**\ \******| |*********| |******|x|*
   9:main.c        **** //*|x|**| |***\ \*****| |*********| |******|x|*
  10:main.c        **** //*|x|**| |***| |****[___]*******[___]*****|x|*
  11:main.c        **** //*********************************************
  12:main.c        **** //
  13:main.c        **** #define SWITCH(X) 1<<X
  14:main.c        **** 
  15:main.c        **** 
  16:main.c        **** #include <asuro/asuro.h>
  17:main.c        **** 
  18:main.c        **** 
  19:main.c        **** 
  20:main.c        **** void main(void)		{
  16               		.loc 1 20 0
  17               		.cfi_startproc
  18 0000 CF93      		push r28	 ;  415	pushqi1/1	[length = 1]
  19               	.LCFI0:
  20               		.cfi_def_cfa_offset 3
  21               		.cfi_offset 28, -2
  22 0002 DF93      		push r29	 ;  416	pushqi1/1	[length = 1]
  23               	.LCFI1:
  24               		.cfi_def_cfa_offset 4
  25               		.cfi_offset 29, -3
  26               		 ; SP -= 4	 ;  420	*addhi3_sp	[length = 2]
  27 0004 00D0      		rcall .
  28 0006 00D0      		rcall .
  29               	.LCFI2:
  30               		.cfi_def_cfa_offset 8
  31 0008 CDB7      		in r28,__SP_L__	 ;  421	*movhi/8	[length = 2]
  32 000a DEB7      		in r29,__SP_H__
  33               	.LCFI3:
  34               		.cfi_def_cfa_register 28
  35               	/* prologue: function */
  36               	/* frame size = 4 */
  37               	/* stack size = 6 */
  38               	.L__stack_usage = 6
  21:main.c        ****     Init();
  39               		.loc 1 21 0
  40 000c 00D0      		rcall Init	 ;  16	call_insn/2	[length = 1]
  41               	.LVL0:
  22:main.c        ****     
  23:main.c        ****     int x			= 0;
  42               		.loc 1 23 0
  43 000e C12C      		mov r12,__zero_reg__	 ;  3	*movhi/2	[length = 2]
  44 0010 D12C      		mov r13,__zero_reg__
  45               	.LBB17:
  24:main.c        ****     int left 		= 0;
  25:main.c        ****     int right 		= 0;
  26:main.c        **** 	char a_pressed	= 0;
  27:main.c        **** 	char b_pressed	= 0;
  28:main.c        **** 	char c_pressed	= 0;
  29:main.c        **** 	char d_pressed	= 0;
  30:main.c        **** 	char e_pressed	= 0;
  31:main.c        **** 	char f_pressed	= 0;
  32:main.c        ****     
  33:main.c        **** 	while(1){
  34:main.c        **** 		
  35:main.c        **** 		
  36:main.c        **** 		uint16_t lineData[] = {0,0};
  37:main.c        **** 		LineData(lineData);
  38:main.c        **** 		
  39:main.c        **** 		char switches = PollSwitch();
  40:main.c        ****         switches &= 0b00111111;
  41:main.c        **** 		
  42:main.c        **** 		left  = ((int)lineData[LEFT] +160)  / 7;
  46               		.loc 1 42 0
  47 0012 37E0      		ldi r19,lo8(7)	 ;  426	*reload_inhi	[length = 3]
  48 0014 A32E      		mov r10,r19
  49 0016 B12C      		mov r11,__zero_reg__
  50               	.LVL1:
  51               	.L27:
  36:main.c        **** 		LineData(lineData);
  52               		.loc 1 36 0
  53 0018 1A82      		std Y+2,__zero_reg__	 ;  28	*movhi/4	[length = 2]
  54 001a 1982      		std Y+1,__zero_reg__
  55 001c 1C82      		std Y+4,__zero_reg__	 ;  29	*movhi/4	[length = 2]
  56 001e 1B82      		std Y+3,__zero_reg__
  37:main.c        **** 		
  57               		.loc 1 37 0
  58 0020 CE01      		movw r24,r28	 ;  411	*movhi/1	[length = 1]
  59 0022 0196      		adiw r24,1	 ;  30	*addhi3/3	[length = 1]
  60 0024 00D0      		rcall LineData	 ;  31	call_insn/2	[length = 1]
  61               	.LVL2:
  39:main.c        ****         switches &= 0b00111111;
  62               		.loc 1 39 0
  63 0026 00D0      		rcall PollSwitch	 ;  32	call_value_insn/2	[length = 1]
  64               	.LVL3:
  65 0028 782E      		mov r7,r24	 ;  33	movqi_insn/1	[length = 1]
  66               	.LVL4:
  67               		.loc 1 42 0
  68 002a 8981      		ldd r24,Y+1	 ;  36	*movhi/3	[length = 2]
  69 002c 9A81      		ldd r25,Y+2
  70 002e 8056      		subi r24,96	 ;  37	addhi3_clobber/2	[length = 2]
  71 0030 9F4F      		sbci r25,-1
  72 0032 B501      		movw r22,r10	 ;  400	*movhi/1	[length = 1]
  73 0034 00D0      		rcall __divmodhi4	 ;  401	*divmodhi4_call	[length = 1]
  74 0036 8B01      		movw r16,r22	 ;  402	*movhi/1	[length = 1]
  75               	.LVL5:
  43:main.c        **** 		right = ((int)lineData[RIGHT]+100)  / 7;
  76               		.loc 1 43 0
  77 0038 8B81      		ldd r24,Y+3	 ;  42	*movhi/3	[length = 2]
  78 003a 9C81      		ldd r25,Y+4
  79 003c 8C59      		subi r24,-100	 ;  43	addhi3_clobber/2	[length = 2]
  80 003e 9F4F      		sbci r25,-1
  81 0040 B501      		movw r22,r10	 ;  405	*movhi/1	[length = 1]
  82 0042 00D0      		rcall __divmodhi4	 ;  406	*divmodhi4_call	[length = 1]
  83 0044 4B01      		movw r8,r22	 ;  407	*movhi/1	[length = 1]
  84 0046 7B01      		movw r14,r22	 ;  46	*movhi/1	[length = 1]
  85               	.LVL6:
  44:main.c        **** 		
  45:main.c        **** 		a_pressed = ( switches & SWITCH(1) );
  46:main.c        **** 		b_pressed = ( switches & SWITCH(4) );
  47:main.c        **** 		c_pressed = ( switches & SWITCH(0) );
  48:main.c        **** 		d_pressed = ( switches & SWITCH(3) );
  49:main.c        **** 		e_pressed = ( switches & SWITCH(2) );
  50:main.c        **** 		f_pressed = ( switches & SWITCH(5) );
  51:main.c        **** 		
  52:main.c        **** 		//fahren
  53:main.c        **** 		
  54:main.c        **** 		if (left>200 ){
  86               		.loc 1 54 0
  87 0048 093C      		cpi r16,-55	 ;  54	*cmphi/6	[length = 2]
  88 004a 1105      		cpc r17,__zero_reg__
  89 004c 04F4      		brge .L28	 ;  55	branch	[length = 1]
  55:main.c        **** 			left=200;
  56:main.c        **** 		}
  57:main.c        **** 		else if(left<100){
  90               		.loc 1 57 0
  91 004e 0436      		cpi r16,100	 ;  57	*cmphi/6	[length = 2]
  92 0050 1105      		cpc r17,__zero_reg__
  93 0052 04F4      		brge .L2	 ;  58	branch	[length = 1]
  94               	.LVL7:
  58:main.c        **** 			left=0;
  59:main.c        **** 			StatusLED(RED);
  95               		.loc 1 59 0
  96 0054 82E0      		ldi r24,lo8(2)	 ;  61	movqi_insn/2	[length = 1]
  97 0056 00D0      		rcall StatusLED	 ;  62	call_insn/2	[length = 1]
  98               	.LVL8:
  58:main.c        **** 			left=0;
  99               		.loc 1 58 0
 100 0058 00E0      		ldi r16,0	 ;  5	*movhi/2	[length = 2]
 101 005a 10E0      		ldi r17,0
 102 005c 00C0      		rjmp .L2	 ;  429	jump	[length = 1]
 103               	.LVL9:
 104               	.L28:
  55:main.c        **** 			left=200;
 105               		.loc 1 55 0
 106 005e 08EC      		ldi r16,lo8(-56)	 ;  375	*movhi/5	[length = 2]
 107 0060 10E0      		ldi r17,0
 108               	.LVL10:
 109               	.L2:
  60:main.c        **** 		}
  61:main.c        **** 				
  62:main.c        **** 		if (right>200){
 110               		.loc 1 62 0
 111 0062 89EC      		ldi r24,-55	 ;  66	*cmphi/7	[length = 3]
 112 0064 8816      		cp r8,r24
 113 0066 9104      		cpc r9,__zero_reg__
 114 0068 04F4      		brge .L29	 ;  67	branch	[length = 1]
  63:main.c        **** 			(right=200);
  64:main.c        **** 		}
  65:main.c        **** 		
  66:main.c        **** 		else if(right<100){
 115               		.loc 1 66 0
 116 006a 84E6      		ldi r24,100	 ;  69	*cmphi/7	[length = 3]
 117 006c 8816      		cp r8,r24
 118 006e 9104      		cpc r9,__zero_reg__
 119 0070 04F4      		brge .L3	 ;  70	branch	[length = 1]
 120               	.LVL11:
  67:main.c        **** 			right=0;
  68:main.c        **** 			StatusLED(RED);
 121               		.loc 1 68 0
 122 0072 82E0      		ldi r24,lo8(2)	 ;  73	movqi_insn/2	[length = 1]
 123 0074 00D0      		rcall StatusLED	 ;  74	call_insn/2	[length = 1]
 124               	.LVL12:
  67:main.c        **** 			right=0;
 125               		.loc 1 67 0
 126 0076 E12C      		mov r14,__zero_reg__	 ;  7	*movhi/2	[length = 2]
 127 0078 F12C      		mov r15,__zero_reg__
 128 007a 00C0      		rjmp .L3	 ;  431	jump	[length = 1]
 129               	.LVL13:
 130               	.L29:
  63:main.c        **** 			(right=200);
 131               		.loc 1 63 0
 132 007c 28EC      		ldi r18,lo8(-56)	 ;  425	*reload_inhi	[length = 3]
 133 007e E22E      		mov r14,r18
 134 0080 F12C      		mov r15,__zero_reg__
 135               	.LVL14:
 136               	.L3:
  69:main.c        **** 		}
  70:main.c        **** 			
  71:main.c        **** 		MotorDir(FWD,FWD);
 137               		.loc 1 71 0
 138 0082 60E2      		ldi r22,lo8(32)	 ;  78	movqi_insn/2	[length = 1]
 139 0084 80E2      		ldi r24,lo8(32)	 ;  79	movqi_insn/2	[length = 1]
 140 0086 00D0      		rcall MotorDir	 ;  80	call_insn/2	[length = 1]
 141               	.LVL15:
  72:main.c        **** 		MotorSpeed(right,left);
 142               		.loc 1 72 0
 143 0088 602F      		mov r22,r16	 ;  81	movqi_insn/1	[length = 1]
 144 008a 8E2D      		mov r24,r14	 ;  82	movqi_insn/1	[length = 1]
 145 008c 00D0      		rcall MotorSpeed	 ;  83	call_insn/2	[length = 1]
 146               	.LVL16:
 147 008e 98E7      		ldi r25,lo8(120)	 ;  424	*reload_inhi	[length = 3]
 148 0090 892E      		mov r8,r25
 149 0092 912C      		mov r9,__zero_reg__
 150               	.LVL17:
 151               	.L5:
 152               	.LBB18:
 153               	.LBB19:
 154               		.file 2 "../../libtinyasuro/inc/asuro/time.h"
   1:../../libtinyasuro/inc/asuro/time.h **** /**
   2:../../libtinyasuro/inc/asuro/time.h ****  * @file
   3:../../libtinyasuro/inc/asuro/time.h ****  *
   4:../../libtinyasuro/inc/asuro/time.h ****  * \if de
   5:../../libtinyasuro/inc/asuro/time.h ****  * Definiert die Schnittstelle für die Verwendung des Timer2 als gemeinsame
   6:../../libtinyasuro/inc/asuro/time.h ****  * Zeitbasis und Taktquelle.
   7:../../libtinyasuro/inc/asuro/time.h ****  *
   8:../../libtinyasuro/inc/asuro/time.h ****  * Es werden Funktionen definiert, die es ermöglichen, den Prozessor für einen
   9:../../libtinyasuro/inc/asuro/time.h ****  * definierten Zeitraum oder bis zum nächsten Interrupt in den Idle-Mode zu
  10:../../libtinyasuro/inc/asuro/time.h ****  * versetzen (unter Verwendung der Funktionalität aus avr/sleep.h).
  11:../../libtinyasuro/inc/asuro/time.h ****  *
  12:../../libtinyasuro/inc/asuro/time.h ****  * Außerdem wird die Möglichkeit geboten, die Taktausgabe für die
  13:../../libtinyasuro/inc/asuro/time.h ****  * IR-Schnittstelle ein- und auszuschalten.
  14:../../libtinyasuro/inc/asuro/time.h ****  *
  15:../../libtinyasuro/inc/asuro/time.h ****  * Zusätzlich besteht die Möglichkeit, eine eigene Funktion in der mit 36kHz
  16:../../libtinyasuro/inc/asuro/time.h ****  * aufgerufenen Timer2-ISR auszuführen, sofern diese Option in hooks.h aktiviert
  17:../../libtinyasuro/inc/asuro/time.h ****  * ist.
  18:../../libtinyasuro/inc/asuro/time.h ****  *
  19:../../libtinyasuro/inc/asuro/time.h ****  * @par Wichtiger Hinweis:
  20:../../libtinyasuro/inc/asuro/time.h ****  *      Für eine korrekte Funktion des Moduls müssen Interrupts global
  21:../../libtinyasuro/inc/asuro/time.h ****  *      freigeschaltet sein, Ausnahmen sind für kurze Zeitspannen zulässig,
  22:../../libtinyasuro/inc/asuro/time.h ****  *      können aber die Genauigkeit negativ beeinflussen.
  23:../../libtinyasuro/inc/asuro/time.h ****  *
  24:../../libtinyasuro/inc/asuro/time.h ****  * @par Initialisierung:
  25:../../libtinyasuro/inc/asuro/time.h ****  *      Vor der Verwendung des Moduls muss Timer2Init() aufgerufen werden, zudem
  26:../../libtinyasuro/inc/asuro/time.h ****  *      wird eine globale Interruptfreigabe benötigt.
  27:../../libtinyasuro/inc/asuro/time.h ****  *
  28:../../libtinyasuro/inc/asuro/time.h ****  * @par Genutzte Hardwareressourcen:
  29:../../libtinyasuro/inc/asuro/time.h ****  *      Module:
  30:../../libtinyasuro/inc/asuro/time.h ****  *      @li Timer2
  31:../../libtinyasuro/inc/asuro/time.h ****  *
  32:../../libtinyasuro/inc/asuro/time.h ****  *      Interruptvektoren:
  33:../../libtinyasuro/inc/asuro/time.h ****  *      @li TIMER2_OVF
  34:../../libtinyasuro/inc/asuro/time.h ****  *
  35:../../libtinyasuro/inc/asuro/time.h ****  *      I/O:
  36:../../libtinyasuro/inc/asuro/time.h ****  *      @li Port B: Pin 3 (36kHz-Träger der IR-Schnittstelle)
  37:../../libtinyasuro/inc/asuro/time.h ****  * \endif
  38:../../libtinyasuro/inc/asuro/time.h ****  *
  39:../../libtinyasuro/inc/asuro/time.h ****  * \if en
  40:../../libtinyasuro/inc/asuro/time.h ****  * Interface definitions to use timer2 as common clock source and time
  41:../../libtinyasuro/inc/asuro/time.h ****  * reference.
  42:../../libtinyasuro/inc/asuro/time.h ****  *
  43:../../libtinyasuro/inc/asuro/time.h ****  * This interface defines functions to put the microcontroller into idle mode
  44:../../libtinyasuro/inc/asuro/time.h ****  * for either a defined timespan or until the next interrupt occurs. The
  45:../../libtinyasuro/inc/asuro/time.h ****  * functionality in avr/sleep.h is used for this purpose.
  46:../../libtinyasuro/inc/asuro/time.h ****  *
  47:../../libtinyasuro/inc/asuro/time.h ****  * The carrier clock for the IR communications interface can be controlled
  48:../../libtinyasuro/inc/asuro/time.h ****  * using this interface.
  49:../../libtinyasuro/inc/asuro/time.h ****  *
  50:../../libtinyasuro/inc/asuro/time.h ****  * Timer2 is operating with a frequency of 36kHz, custom code can be executed
  51:../../libtinyasuro/inc/asuro/time.h ****  * by an ISR of timer2 if this feature is enabled in hooks.h.
  52:../../libtinyasuro/inc/asuro/time.h ****  *
  53:../../libtinyasuro/inc/asuro/time.h ****  * @par Important:
  54:../../libtinyasuro/inc/asuro/time.h ****  *      This module requires interrupts to be enabled globally. Short term
  55:../../libtinyasuro/inc/asuro/time.h ****  *      exceptions may be permittable but can have a negative effect on the
  56:../../libtinyasuro/inc/asuro/time.h ****  *      accuracy of the provided clock.
  57:../../libtinyasuro/inc/asuro/time.h ****  *
  58:../../libtinyasuro/inc/asuro/time.h ****  * @par Initialization:
  59:../../libtinyasuro/inc/asuro/time.h ****  *      Timer2Init() must be called before using this module. Interrupts must be
  60:../../libtinyasuro/inc/asuro/time.h ****  *      enabled globally.
  61:../../libtinyasuro/inc/asuro/time.h ****  *
  62:../../libtinyasuro/inc/asuro/time.h ****  * @par Hardware resources in use:
  63:../../libtinyasuro/inc/asuro/time.h ****  *      Components:
  64:../../libtinyasuro/inc/asuro/time.h ****  *      @li Timer2
  65:../../libtinyasuro/inc/asuro/time.h ****  *
  66:../../libtinyasuro/inc/asuro/time.h ****  *      Interrupt vectors:
  67:../../libtinyasuro/inc/asuro/time.h ****  *      @li TIMER2_OVF
  68:../../libtinyasuro/inc/asuro/time.h ****  *
  69:../../libtinyasuro/inc/asuro/time.h ****  *      I/O:
  70:../../libtinyasuro/inc/asuro/time.h ****  *      @li Port B: Pin 3 (36kHz carrier signal for IR communications)
  71:../../libtinyasuro/inc/asuro/time.h ****  * \endif
  72:../../libtinyasuro/inc/asuro/time.h ****  *
  73:../../libtinyasuro/inc/asuro/time.h ****  * @see hooks.h
  74:../../libtinyasuro/inc/asuro/time.h ****  *
  75:../../libtinyasuro/inc/asuro/time.h ****  * @author Markus Jung
  76:../../libtinyasuro/inc/asuro/time.h ****  *
  77:../../libtinyasuro/inc/asuro/time.h ****  * @version 23.05.2010 \n
  78:../../libtinyasuro/inc/asuro/time.h ****  *  Schnittstellendefinition entsprechend asuro.h
  79:../../libtinyasuro/inc/asuro/time.h ****  * @version 28.05.2010 \n
  80:../../libtinyasuro/inc/asuro/time.h ****  *  Zählervariable zugänglich gemacht
  81:../../libtinyasuro/inc/asuro/time.h ****  * @version 02.06.2010 \n
  82:../../libtinyasuro/inc/asuro/time.h ****  *  sleepUntilInterrupt implementiert
  83:../../libtinyasuro/inc/asuro/time.h ****  * @version 15.06.2010 \n
  84:../../libtinyasuro/inc/asuro/time.h ****  *  Doku
  85:../../libtinyasuro/inc/asuro/time.h ****  * @version 26.06.2010 \n
  86:../../libtinyasuro/inc/asuro/time.h ****  *  Alias-Makros für sleep, msleep und sleepUntilInterrupt hinzugefügt
  87:../../libtinyasuro/inc/asuro/time.h ****  *  (zwecks konsistentem Namensschema)
  88:../../libtinyasuro/inc/asuro/time.h ****  * @version 16.08.2010 \n
  89:../../libtinyasuro/inc/asuro/time.h ****  *  + Hook für Timer2ISR
  90:../../libtinyasuro/inc/asuro/time.h ****  * @version 13.09.2013 \n
  91:../../libtinyasuro/inc/asuro/time.h ****  *  English documentation
  92:../../libtinyasuro/inc/asuro/time.h ****  * @version 29.10.2013 \n
  93:../../libtinyasuro/inc/asuro/time.h ****  *  Document interrupt safety issues of TIMER2_CLOCK_OUT_ENABLE() and
  94:../../libtinyasuro/inc/asuro/time.h ****  *  TIMER2_CLOCK_OUT_DISABLE()
  95:../../libtinyasuro/inc/asuro/time.h ****  */
  96:../../libtinyasuro/inc/asuro/time.h **** /*
  97:../../libtinyasuro/inc/asuro/time.h ****  * The contents of this file are subject to the terms of the Common Development
  98:../../libtinyasuro/inc/asuro/time.h ****  * and Distribution License Version 1.0 (the License).
  99:../../libtinyasuro/inc/asuro/time.h ****  * You may not use this file except in compliance with the License.
 100:../../libtinyasuro/inc/asuro/time.h ****  *
 101:../../libtinyasuro/inc/asuro/time.h ****  * If not included, you can obtain a copy of the License at
 102:../../libtinyasuro/inc/asuro/time.h ****  * http://www.sun.com/cddl/cddl.html
 103:../../libtinyasuro/inc/asuro/time.h ****  *
 104:../../libtinyasuro/inc/asuro/time.h ****  * When distributing Covered Code, include this CDDL Header Notice in each file
 105:../../libtinyasuro/inc/asuro/time.h ****  * and include the provided License file.
 106:../../libtinyasuro/inc/asuro/time.h ****  */
 107:../../libtinyasuro/inc/asuro/time.h **** 
 108:../../libtinyasuro/inc/asuro/time.h **** #ifndef TIME_H_
 109:../../libtinyasuro/inc/asuro/time.h **** #define TIME_H_
 110:../../libtinyasuro/inc/asuro/time.h **** 
 111:../../libtinyasuro/inc/asuro/time.h **** #include <stdbool.h>
 112:../../libtinyasuro/inc/asuro/time.h **** #include <stdint.h>
 113:../../libtinyasuro/inc/asuro/time.h **** #include "hooks.h"
 114:../../libtinyasuro/inc/asuro/time.h **** #include "../util/misc.h"
 115:../../libtinyasuro/inc/asuro/time.h **** 
 116:../../libtinyasuro/inc/asuro/time.h **** #ifdef __DOXYGEN__
 117:../../libtinyasuro/inc/asuro/time.h **** /** \if de
 118:../../libtinyasuro/inc/asuro/time.h ****  * Alias-Makro für sleep().
 119:../../libtinyasuro/inc/asuro/time.h ****  * \endif
 120:../../libtinyasuro/inc/asuro/time.h ****  *
 121:../../libtinyasuro/inc/asuro/time.h ****  * \if en
 122:../../libtinyasuro/inc/asuro/time.h ****  * Alias macro for sleep().
 123:../../libtinyasuro/inc/asuro/time.h ****  * \endif
 124:../../libtinyasuro/inc/asuro/time.h ****  */
 125:../../libtinyasuro/inc/asuro/time.h **** #define Sleep
 126:../../libtinyasuro/inc/asuro/time.h **** /** \if de
 127:../../libtinyasuro/inc/asuro/time.h ****  * Alias-Makro für msleep().
 128:../../libtinyasuro/inc/asuro/time.h ****  * \endif
 129:../../libtinyasuro/inc/asuro/time.h ****  *
 130:../../libtinyasuro/inc/asuro/time.h ****  * \if en
 131:../../libtinyasuro/inc/asuro/time.h ****  * Alias macro for msleep().
 132:../../libtinyasuro/inc/asuro/time.h ****  * \endif
 133:../../libtinyasuro/inc/asuro/time.h ****  */
 134:../../libtinyasuro/inc/asuro/time.h **** #define Msleep
 135:../../libtinyasuro/inc/asuro/time.h **** /** \if de
 136:../../libtinyasuro/inc/asuro/time.h ****  * Alias-Makro für sleepUntilInterrupt().
 137:../../libtinyasuro/inc/asuro/time.h ****  * \endif
 138:../../libtinyasuro/inc/asuro/time.h ****  *
 139:../../libtinyasuro/inc/asuro/time.h ****  * \if en
 140:../../libtinyasuro/inc/asuro/time.h ****  * Alias macro for sleepUntilInterrupt().
 141:../../libtinyasuro/inc/asuro/time.h ****  * \endif
 142:../../libtinyasuro/inc/asuro/time.h ****  */
 143:../../libtinyasuro/inc/asuro/time.h **** #define SleepUntilInterrupt
 144:../../libtinyasuro/inc/asuro/time.h **** #else
 145:../../libtinyasuro/inc/asuro/time.h **** #define Sleep               sleep
 146:../../libtinyasuro/inc/asuro/time.h **** #define Msleep              msleep
 147:../../libtinyasuro/inc/asuro/time.h **** #define SleepUntilInterrupt sleepUntilInterrupt
 148:../../libtinyasuro/inc/asuro/time.h **** #endif
 149:../../libtinyasuro/inc/asuro/time.h **** 
 150:../../libtinyasuro/inc/asuro/time.h **** /**
 151:../../libtinyasuro/inc/asuro/time.h ****  * \if de
 152:../../libtinyasuro/inc/asuro/time.h ****  * Eine Zählvariable die im 36kHz-Takt (um eins) inkrementiert wird.
 153:../../libtinyasuro/inc/asuro/time.h ****  * \endif
 154:../../libtinyasuro/inc/asuro/time.h ****  *
 155:../../libtinyasuro/inc/asuro/time.h ****  * \if en
 156:../../libtinyasuro/inc/asuro/time.h ****  * A counting variable incremented from the 36kHz clock.
 157:../../libtinyasuro/inc/asuro/time.h ****  * \endif
 158:../../libtinyasuro/inc/asuro/time.h ****  */
 159:../../libtinyasuro/inc/asuro/time.h **** extern volatile uint8_t tick36kHz; // counts from 0 to 255
 160:../../libtinyasuro/inc/asuro/time.h **** 
 161:../../libtinyasuro/inc/asuro/time.h **** #ifdef __DOXYGEN__
 162:../../libtinyasuro/inc/asuro/time.h **** /**
 163:../../libtinyasuro/inc/asuro/time.h ****  * \if de
 164:../../libtinyasuro/inc/asuro/time.h ****  * Bietet die Möglichkeit, eine eigene Funktion bei jedem Aufruf der Timer-ISR
 165:../../libtinyasuro/inc/asuro/time.h ****  * auszuführen. Die interne Funktionalität bleibt dabei erhalten.
 166:../../libtinyasuro/inc/asuro/time.h ****  *
 167:../../libtinyasuro/inc/asuro/time.h ****  * Da die Timer-ISR mit einer Frequenz von 36kHz aufgerufen wird, sollte diese
 168:../../libtinyasuro/inc/asuro/time.h ****  * Funktion möglichst kurz sein.
 169:../../libtinyasuro/inc/asuro/time.h ****  *
 170:../../libtinyasuro/inc/asuro/time.h ****  * Der Aufruf erfolgt aus dem Kontext eines Interrupts!
 171:../../libtinyasuro/inc/asuro/time.h ****  *
 172:../../libtinyasuro/inc/asuro/time.h ****  * Ist (Timer2ISRHook == NULL), findet kein Aufruf statt.
 173:../../libtinyasuro/inc/asuro/time.h ****  *
 174:../../libtinyasuro/inc/asuro/time.h ****  * Diese Funktionalität steht nicht zur Verfügung, wenn TIMER2_ISR_HOOK_ENABLE
 175:../../libtinyasuro/inc/asuro/time.h ****  * deaktiviert ist.
 176:../../libtinyasuro/inc/asuro/time.h ****  * \endif
 177:../../libtinyasuro/inc/asuro/time.h ****  *
 178:../../libtinyasuro/inc/asuro/time.h ****  * \if en
 179:../../libtinyasuro/inc/asuro/time.h ****  * Offers the ability to execute a custom function in addition to the internal
 180:../../libtinyasuro/inc/asuro/time.h ****  * code of the timer ISR.
 181:../../libtinyasuro/inc/asuro/time.h ****  *
 182:../../libtinyasuro/inc/asuro/time.h ****  * Since the ISR will be executed with a frequency of 36kHz, the called function
 183:../../libtinyasuro/inc/asuro/time.h ****  * should be as short as possible.
 184:../../libtinyasuro/inc/asuro/time.h ****  *
 185:../../libtinyasuro/inc/asuro/time.h ****  * The function will be called from an interrupt context!
 186:../../libtinyasuro/inc/asuro/time.h ****  *
 187:../../libtinyasuro/inc/asuro/time.h ****  * No function call will be executed if (Timer2ISRHook == NULL).
 188:../../libtinyasuro/inc/asuro/time.h ****  *
 189:../../libtinyasuro/inc/asuro/time.h ****  * The timer hook feature is not available if TIMER2_ISR_HOOK_ENABLE has been
 190:../../libtinyasuro/inc/asuro/time.h ****  * disabled.
 191:../../libtinyasuro/inc/asuro/time.h ****  * \endif
 192:../../libtinyasuro/inc/asuro/time.h ****  */
 193:../../libtinyasuro/inc/asuro/time.h **** extern ISRHookFunc_t *Timer2ISRHook;
 194:../../libtinyasuro/inc/asuro/time.h **** #else  // !__DOXYGEN__
 195:../../libtinyasuro/inc/asuro/time.h **** #if TIMER2_ISR_HOOK_ENABLE
 196:../../libtinyasuro/inc/asuro/time.h **** extern ISRHookFunc_t *Timer2ISRHook;
 197:../../libtinyasuro/inc/asuro/time.h **** #endif
 198:../../libtinyasuro/inc/asuro/time.h **** #endif
 199:../../libtinyasuro/inc/asuro/time.h **** 
 200:../../libtinyasuro/inc/asuro/time.h **** /**
 201:../../libtinyasuro/inc/asuro/time.h ****  * \if de
 202:../../libtinyasuro/inc/asuro/time.h ****  * Initialisiert das Modul und den als Zeitbasis und Taktgenerator für die
 203:../../libtinyasuro/inc/asuro/time.h ****  * Infrarotschnittstelle verwendeten Timer2.
 204:../../libtinyasuro/inc/asuro/time.h ****  *
 205:../../libtinyasuro/inc/asuro/time.h ****  * Nach der Initialisierung ist die Taktausgabe für die Infrarotschnittstelle
 206:../../libtinyasuro/inc/asuro/time.h ****  * deaktiviert.
 207:../../libtinyasuro/inc/asuro/time.h ****  * \endif
 208:../../libtinyasuro/inc/asuro/time.h ****  *
 209:../../libtinyasuro/inc/asuro/time.h ****  * \if en
 210:../../libtinyasuro/inc/asuro/time.h ****  * Initializes the module and timer2 which is used as time reference and clock
 211:../../libtinyasuro/inc/asuro/time.h ****  * source for the IR communications interface.
 212:../../libtinyasuro/inc/asuro/time.h ****  *
 213:../../libtinyasuro/inc/asuro/time.h ****  * The clock output for the IR interface will be in a disabled state after the
 214:../../libtinyasuro/inc/asuro/time.h ****  * initialization has been completed.
 215:../../libtinyasuro/inc/asuro/time.h ****  * \endif
 216:../../libtinyasuro/inc/asuro/time.h ****  */
 217:../../libtinyasuro/inc/asuro/time.h **** extern void Timer2Init(void);
 218:../../libtinyasuro/inc/asuro/time.h **** 
 219:../../libtinyasuro/inc/asuro/time.h **** /**
 220:../../libtinyasuro/inc/asuro/time.h ****  * \if de
 221:../../libtinyasuro/inc/asuro/time.h ****  * Aktiviert die Ausgabe des 36kHz-Signals für die Infrarotschnittstelle.
 222:../../libtinyasuro/inc/asuro/time.h ****  *
 223:../../libtinyasuro/inc/asuro/time.h ****  * @par Wichtiger Hinweis:
 224:../../libtinyasuro/inc/asuro/time.h ****  * Dieses Makro ist nur eingeschänkt interruptfest. Es darf nicht "parallel" zu
 225:../../libtinyasuro/inc/asuro/time.h ****  * TIMER2_CLOCK_OUT_DISABLE() ausgeführt werden.
 226:../../libtinyasuro/inc/asuro/time.h ****  * \endif
 227:../../libtinyasuro/inc/asuro/time.h ****  *
 228:../../libtinyasuro/inc/asuro/time.h ****  * \if en
 229:../../libtinyasuro/inc/asuro/time.h ****  * Enables the 36kHz carrier signal for the IR communications interface.
 230:../../libtinyasuro/inc/asuro/time.h ****  *
 231:../../libtinyasuro/inc/asuro/time.h ****  * @par Important:
 232:../../libtinyasuro/inc/asuro/time.h ****  * This macro is interrupt-safe except for one restriction. It must not be
 233:../../libtinyasuro/inc/asuro/time.h ****  * executed in parallel to TIMER2_CLOCK_OUT_DISABLE().
 234:../../libtinyasuro/inc/asuro/time.h ****  * \endif
 235:../../libtinyasuro/inc/asuro/time.h ****  */
 236:../../libtinyasuro/inc/asuro/time.h **** #ifdef __DOXYGEN__
 237:../../libtinyasuro/inc/asuro/time.h **** #define TIMER2_CLOCK_OUT_ENABLE()
 238:../../libtinyasuro/inc/asuro/time.h **** #else
 239:../../libtinyasuro/inc/asuro/time.h **** #define TIMER2_CLOCK_OUT_ENABLE() \
 240:../../libtinyasuro/inc/asuro/time.h ****     do { /* Fast PWM, BOTTOM: Clear, CompMatch: Set */ \
 241:../../libtinyasuro/inc/asuro/time.h ****         TCCR2 |= (1 << WGM20) | (1 << WGM21) | (1 << COM20) | (1 << COM21); \
 242:../../libtinyasuro/inc/asuro/time.h ****     } while (false)
 243:../../libtinyasuro/inc/asuro/time.h **** #endif
 244:../../libtinyasuro/inc/asuro/time.h **** 
 245:../../libtinyasuro/inc/asuro/time.h **** /**
 246:../../libtinyasuro/inc/asuro/time.h ****  * \if de
 247:../../libtinyasuro/inc/asuro/time.h ****  * Deaktiviert die Ausgabe des 36kHz-Signals für die Infrarotschnittstelle.
 248:../../libtinyasuro/inc/asuro/time.h ****  *
 249:../../libtinyasuro/inc/asuro/time.h ****  * @par Wichtiger Hinweis:
 250:../../libtinyasuro/inc/asuro/time.h ****  * Dieses Makro ist nur eingeschränkt interruptfest. Es darf nicht "parallel"
 251:../../libtinyasuro/inc/asuro/time.h ****  * zu TIMER2_CLOCK_OUT_ENABLE() ausgeführt werden.
 252:../../libtinyasuro/inc/asuro/time.h ****  * \endif
 253:../../libtinyasuro/inc/asuro/time.h ****  *
 254:../../libtinyasuro/inc/asuro/time.h ****  * \if en
 255:../../libtinyasuro/inc/asuro/time.h ****  * Disables the 36kHz carrier signal for the IR communications interface.
 256:../../libtinyasuro/inc/asuro/time.h ****  *
 257:../../libtinyasuro/inc/asuro/time.h ****  * @par Important:
 258:../../libtinyasuro/inc/asuro/time.h ****  * This macro is interrupt-safe except for one restriction. It must not be
 259:../../libtinyasuro/inc/asuro/time.h ****  * executed in parallel to TIMER2_CLOCK_OUT_ENABLE().
 260:../../libtinyasuro/inc/asuro/time.h ****  * \endif
 261:../../libtinyasuro/inc/asuro/time.h ****  */
 262:../../libtinyasuro/inc/asuro/time.h **** #ifdef __DOXYGEN__
 263:../../libtinyasuro/inc/asuro/time.h **** #define TIMER2_CLOCK_OUT_DISABLE()
 264:../../libtinyasuro/inc/asuro/time.h **** #else
 265:../../libtinyasuro/inc/asuro/time.h **** #define TIMER2_CLOCK_OUT_DISABLE() \
 266:../../libtinyasuro/inc/asuro/time.h ****     do { /* PWM off */ \
 267:../../libtinyasuro/inc/asuro/time.h ****         TCCR2 &= ~((1 << WGM20) | (1 << WGM21) | (1 << COM20) | (1 << COM21)); \
 268:../../libtinyasuro/inc/asuro/time.h ****     } while (false)
 269:../../libtinyasuro/inc/asuro/time.h **** #endif
 270:../../libtinyasuro/inc/asuro/time.h **** 
 271:../../libtinyasuro/inc/asuro/time.h **** /**
 272:../../libtinyasuro/inc/asuro/time.h ****  * \if de
 273:../../libtinyasuro/inc/asuro/time.h ****  * Hält den Programmfluss für die vorgegebene Anzahl 36kHz-Takte an und schickt
 274:../../libtinyasuro/inc/asuro/time.h ****  * den Prozessor währendessen in den Idle-Mode.
 275:../../libtinyasuro/inc/asuro/time.h ****  *
 276:../../libtinyasuro/inc/asuro/time.h ****  * Alle Interrupts bleiben aktiv und werden ausgeführt, ledliglich der
 277:../../libtinyasuro/inc/asuro/time.h ****  * aufrufende Programmpfad wird unterbrochen.
 278:../../libtinyasuro/inc/asuro/time.h ****  *
 279:../../libtinyasuro/inc/asuro/time.h ****  * Wenn diese Funktion aufgerufen wird, geht sie davon aus, dass Interrupts
 280:../../libtinyasuro/inc/asuro/time.h ****  * global freigeschaltet sind - wenn nicht findet die globale Interruptfreigabe
 281:../../libtinyasuro/inc/asuro/time.h ****  * vor Eintritt in den Idle-Mode statt.
 282:../../libtinyasuro/inc/asuro/time.h ****  *
 283:../../libtinyasuro/inc/asuro/time.h ****  * @param timer36kHz_ticks die Anzahl der 36kHz-Takte die der Prozessor
 284:../../libtinyasuro/inc/asuro/time.h ****  *                         "schlafen" soll
 285:../../libtinyasuro/inc/asuro/time.h ****  * \endif
 286:../../libtinyasuro/inc/asuro/time.h ****  *
 287:../../libtinyasuro/inc/asuro/time.h ****  * \if en
 288:../../libtinyasuro/inc/asuro/time.h ****  * Delays the execution for the specified amount of time, measured in 36kHz
 289:../../libtinyasuro/inc/asuro/time.h ****  * ticks. The microcontroller will halted (idle mode) during this time.
 290:../../libtinyasuro/inc/asuro/time.h ****  *
 291:../../libtinyasuro/inc/asuro/time.h ****  * All interrupt requests remain active and will be executed, the calling
 292:../../libtinyasuro/inc/asuro/time.h ****  * function itself remains halted.
 293:../../libtinyasuro/inc/asuro/time.h ****  *
 294:../../libtinyasuro/inc/asuro/time.h ****  * This function expects interrupts to be globally enabled if it gets called.
 295:../../libtinyasuro/inc/asuro/time.h ****  * If not, the global interrupt enable bit will be set before entering the sleep
 296:../../libtinyasuro/inc/asuro/time.h ****  * mode and remain in this state after the function returns.
 297:../../libtinyasuro/inc/asuro/time.h ****  *
 298:../../libtinyasuro/inc/asuro/time.h ****  * @param timer36kHz_ticks the number of 36kHz ticks the microcontroller will
 299:../../libtinyasuro/inc/asuro/time.h ****  *                         be halted.
 300:../../libtinyasuro/inc/asuro/time.h ****  * \endif
 301:../../libtinyasuro/inc/asuro/time.h ****  */
 302:../../libtinyasuro/inc/asuro/time.h **** extern void sleep(uint8_t timer36kHz_ticks);
 303:../../libtinyasuro/inc/asuro/time.h **** /**
 304:../../libtinyasuro/inc/asuro/time.h ****  * \if de
 305:../../libtinyasuro/inc/asuro/time.h ****  * Schickt den Prozessor in den Idle-Mode und kehrt zurück, nachdem ein
 306:../../libtinyasuro/inc/asuro/time.h ****  * Interrupt ausgelöst wurde.
 307:../../libtinyasuro/inc/asuro/time.h ****  *
 308:../../libtinyasuro/inc/asuro/time.h ****  * Wenn diese Funktion aufgerufen wird, geht sie davon aus, dass Interrupts
 309:../../libtinyasuro/inc/asuro/time.h ****  * global freigeschaltet sind - wenn nicht findet die globale Interruptfreigabe
 310:../../libtinyasuro/inc/asuro/time.h ****  * vor Eintritt in den Idle-Mode statt.
 311:../../libtinyasuro/inc/asuro/time.h ****  * \endif
 312:../../libtinyasuro/inc/asuro/time.h ****  *
 313:../../libtinyasuro/inc/asuro/time.h ****  * \if en
 314:../../libtinyasuro/inc/asuro/time.h ****  * Puts the microcontroller into idle mode until the next interrupt occurs.
 315:../../libtinyasuro/inc/asuro/time.h ****  *
 316:../../libtinyasuro/inc/asuro/time.h ****  * This function expects interrupts to be globally enabled if it gets called.
 317:../../libtinyasuro/inc/asuro/time.h ****  * If not, the global interrupt enable bit will be set before entering the sleep
 318:../../libtinyasuro/inc/asuro/time.h ****  * mode and remain in this state after the function returns.
 319:../../libtinyasuro/inc/asuro/time.h ****  * \endif
 320:../../libtinyasuro/inc/asuro/time.h ****  */
 321:../../libtinyasuro/inc/asuro/time.h **** extern void sleepUntilInterrupt(void);
 322:../../libtinyasuro/inc/asuro/time.h **** 
 323:../../libtinyasuro/inc/asuro/time.h **** /**
 324:../../libtinyasuro/inc/asuro/time.h ****  * \if de
 325:../../libtinyasuro/inc/asuro/time.h ****  * Verhält sich wie sleep(), verwendet als Zeitbasis aber Millisekunden
 326:../../libtinyasuro/inc/asuro/time.h ****  *
 327:../../libtinyasuro/inc/asuro/time.h ****  * @param ms die Anzahl der Millisekunden die der Prozessor "schlafend"
 328:../../libtinyasuro/inc/asuro/time.h ****  *           verbringen soll
 329:../../libtinyasuro/inc/asuro/time.h ****  * \endif
 330:../../libtinyasuro/inc/asuro/time.h ****  *
 331:../../libtinyasuro/inc/asuro/time.h ****  * \if en
 332:../../libtinyasuro/inc/asuro/time.h ****  * Behaves like sleep() but uses milliseconds as timebase.
 333:../../libtinyasuro/inc/asuro/time.h ****  *
 334:../../libtinyasuro/inc/asuro/time.h ****  * @param ms the time the microcontroller will be halted, measured in
 335:../../libtinyasuro/inc/asuro/time.h ****  *           milliseconds
 336:../../libtinyasuro/inc/asuro/time.h ****  * \endif
 337:../../libtinyasuro/inc/asuro/time.h ****  */
 338:../../libtinyasuro/inc/asuro/time.h **** #ifdef __DOXYGEN__
 339:../../libtinyasuro/inc/asuro/time.h **** void msleep(uint16_t ms);
 340:../../libtinyasuro/inc/asuro/time.h **** #else
 341:../../libtinyasuro/inc/asuro/time.h **** static ALWAYS_INLINE void msleep(uint16_t ms);
 342:../../libtinyasuro/inc/asuro/time.h **** #endif
 343:../../libtinyasuro/inc/asuro/time.h **** 
 344:../../libtinyasuro/inc/asuro/time.h **** void msleep(uint16_t ms) {
 345:../../libtinyasuro/inc/asuro/time.h ****     for (; ms > 0; ms--) {
 346:../../libtinyasuro/inc/asuro/time.h ****         sleep(36);
 155               		.loc 2 346 0
 156 0094 84E2      		ldi r24,lo8(36)	 ;  88	movqi_insn/2	[length = 1]
 157 0096 00D0      		rcall sleep	 ;  89	call_insn/2	[length = 1]
 158               	.LVL18:
 159 0098 81E0      		ldi r24,1	 ;  93	addhi3_clobber/3	[length = 3]
 160 009a 881A      		sub r8,r24
 161 009c 9108      		sbc r9,__zero_reg__
 162               	.LVL19:
 345:../../libtinyasuro/inc/asuro/time.h ****         sleep(36);
 163               		.loc 2 345 0
 164 009e 8114      		cp r8,__zero_reg__	 ;  94	*cmphi/2	[length = 2]
 165 00a0 9104      		cpc r9,__zero_reg__
 166 00a2 01F4      		brne .L5	 ;  95	branch	[length = 1]
 167               	.LBE19:
 168               	.LBE18:
  73:main.c        **** 		msleep(120);
  74:main.c        **** 						
  75:main.c        **** 		//LED Steuerung
  76:main.c        **** 		
  77:main.c        **** 		if(left > right){
 169               		.loc 1 77 0
 170 00a4 E016      		cp r14,r16	 ;  104	*cmphi/3	[length = 2]
 171 00a6 F106      		cpc r15,r17
 172 00a8 04F4      		brge .L6	 ;  105	branch	[length = 1]
  78:main.c        **** 			BackLED(OFF,ON);
 173               		.loc 1 78 0
 174 00aa 61E0      		ldi r22,lo8(1)	 ;  107	movqi_insn/2	[length = 1]
 175 00ac 80E0      		ldi r24,0	 ;  108	movqi_insn/1	[length = 1]
 176 00ae 00D0      		rcall BackLED	 ;  109	call_insn/2	[length = 1]
 177               	.LVL20:
 178               	.L6:
  79:main.c        **** 		}
  80:main.c        **** 		
  81:main.c        **** 		if(right > left){
 179               		.loc 1 81 0
 180 00b0 0E15      		cp r16,r14	 ;  112	*cmphi/3	[length = 2]
 181 00b2 1F05      		cpc r17,r15
 182 00b4 04F4      		brge .L7	 ;  113	branch	[length = 1]
  82:main.c        **** 			BackLED(ON,OFF);
 183               		.loc 1 82 0
 184 00b6 60E0      		ldi r22,0	 ;  115	movqi_insn/1	[length = 1]
 185 00b8 81E0      		ldi r24,lo8(1)	 ;  116	movqi_insn/2	[length = 1]
 186 00ba 00D0      		rcall BackLED	 ;  117	call_insn/2	[length = 1]
 187               	.LVL21:
 188               	.L7:
  83:main.c        **** 		}
  84:main.c        **** 		
  85:main.c        **** 		if(right == left){
 189               		.loc 1 85 0
 190 00bc E016      		cp r14,r16	 ;  120	*cmphi/3	[length = 2]
 191 00be F106      		cpc r15,r17
 192 00c0 01F4      		brne .L8	 ;  121	branch	[length = 1]
  86:main.c        **** 			BackLED(ON,ON);
 193               		.loc 1 86 0
 194 00c2 61E0      		ldi r22,lo8(1)	 ;  123	movqi_insn/2	[length = 1]
 195 00c4 81E0      		ldi r24,lo8(1)	 ;  124	movqi_insn/2	[length = 1]
 196 00c6 00D0      		rcall BackLED	 ;  125	call_insn/2	[length = 1]
 197               	.LVL22:
 198               	.L8:
  87:main.c        **** 		}
  88:main.c        **** 		
  89:main.c        **** 		if(right && left < 80){
 199               		.loc 1 89 0
 200 00c8 E114      		cp r14,__zero_reg__	 ;  128	*cmphi/2	[length = 2]
 201 00ca F104      		cpc r15,__zero_reg__
 202 00cc 01F0      		breq .L10	 ;  129	branch	[length = 1]
 203               		.loc 1 89 0 is_stmt 0 discriminator 1
 204 00ce 0035      		cpi r16,80	 ;  135	*cmphi/6	[length = 2]
 205 00d0 1105      		cpc r17,__zero_reg__
 206 00d2 04F4      		brge .L11	 ;  136	branch	[length = 1]
  90:main.c        **** 			StatusLED(RED);
 207               		.loc 1 90 0 is_stmt 1
 208 00d4 82E0      		ldi r24,lo8(2)	 ;  138	movqi_insn/2	[length = 1]
 209 00d6 00D0      		rcall StatusLED	 ;  139	call_insn/2	[length = 1]
 210               	.LVL23:
 211               	.L11:
  91:main.c        **** 		}
  92:main.c        **** 		
  93:main.c        **** 		if(80 < right && left < 120){
 212               		.loc 1 93 0
 213 00d8 81E5      		ldi r24,81	 ;  142	*cmphi/7	[length = 3]
 214 00da E816      		cp r14,r24
 215 00dc F104      		cpc r15,__zero_reg__
 216 00de 04F0      		brlt .L12	 ;  143	branch	[length = 1]
 217               		.loc 1 93 0 is_stmt 0 discriminator 1
 218 00e0 0837      		cpi r16,120	 ;  145	*cmphi/6	[length = 2]
 219 00e2 1105      		cpc r17,__zero_reg__
 220 00e4 04F4      		brge .L12	 ;  146	branch	[length = 1]
  94:main.c        **** 			StatusLED(YELLOW);
 221               		.loc 1 94 0 is_stmt 1
 222 00e6 83E0      		ldi r24,lo8(3)	 ;  148	movqi_insn/2	[length = 1]
 223 00e8 00D0      		rcall StatusLED	 ;  149	call_insn/2	[length = 1]
 224               	.LVL24:
 225               	.L12:
  95:main.c        **** 		}
  96:main.c        **** 		
  97:main.c        **** 		if(right && left > 120){
 226               		.loc 1 97 0 discriminator 1
 227 00ea 0937      		cpi r16,121	 ;  155	*cmphi/6	[length = 2]
 228 00ec 1105      		cpc r17,__zero_reg__
 229 00ee 04F0      		brlt .L10	 ;  156	branch	[length = 1]
  98:main.c        **** 			StatusLED(GREEN);
 230               		.loc 1 98 0
 231 00f0 81E0      		ldi r24,lo8(1)	 ;  158	movqi_insn/2	[length = 1]
 232 00f2 00D0      		rcall StatusLED	 ;  159	call_insn/2	[length = 1]
 233               	.LVL25:
 234               	.L10:
  99:main.c        **** 		}
 100:main.c        **** 		
 101:main.c        **** 		
 102:main.c        **** 			if(x == 3000){
 235               		.loc 1 102 0
 236 00f4 88EB      		ldi r24,-72	 ;  162	*cmphi/7	[length = 4]
 237 00f6 C816      		cp r12,r24
 238 00f8 8BE0      		ldi r24,11
 239 00fa D806      		cpc r13,r24
 240 00fc 01F4      		brne .L15	 ;  163	branch	[length = 1]
 103:main.c        **** 				FrontLED(ON);
 241               		.loc 1 103 0
 242 00fe 81E0      		ldi r24,lo8(1)	 ;  165	movqi_insn/2	[length = 1]
 243 0100 00D0      		rcall FrontLED	 ;  166	call_insn/2	[length = 1]
 244               	.LVL26:
 104:main.c        **** 				x=0;
 245               		.loc 1 104 0
 246 0102 C12C      		mov r12,__zero_reg__	 ;  9	*movhi/2	[length = 2]
 247 0104 D12C      		mov r13,__zero_reg__
 248 0106 00C0      		rjmp .L16	 ;  433	jump	[length = 1]
 249               	.LVL27:
 250               	.L15:
 105:main.c        **** 		    }
 106:main.c        **** 		    if(x == 15){				
 251               		.loc 1 106 0
 252 0108 8FE0      		ldi r24,15	 ;  174	*cmphi/7	[length = 3]
 253 010a C816      		cp r12,r24
 254 010c D104      		cpc r13,__zero_reg__
 255 010e 01F4      		brne .L16	 ;  175	branch	[length = 1]
 107:main.c        **** 				FrontLED(OFF);
 256               		.loc 1 107 0
 257 0110 80E0      		ldi r24,0	 ;  177	movqi_insn/1	[length = 1]
 258 0112 00D0      		rcall FrontLED	 ;  178	call_insn/2	[length = 1]
 259               	.LVL28:
 108:main.c        **** 				x++;
 260               		.loc 1 108 0
 261 0114 80E1      		ldi r24,lo8(16)	 ;  423	*reload_inhi	[length = 3]
 262 0116 C82E      		mov r12,r24
 263 0118 D12C      		mov r13,__zero_reg__
 264 011a 00C0      		rjmp .L17	 ;  435	jump	[length = 1]
 265               	.LVL29:
 266               	.L16:
 109:main.c        **** 			}
 110:main.c        **** 			else{
 111:main.c        **** 				x++;
 267               		.loc 1 111 0
 268 011c 8FEF      		ldi r24,-1	 ;  185	addhi3_clobber/3	[length = 3]
 269 011e C81A      		sub r12,r24
 270 0120 D80A      		sbc r13,r24
 271               	.LVL30:
 272               	.L17:
 273 0122 872D      		mov r24,r7	 ;  412	movqi_insn/1	[length = 1]
 274 0124 8271      		andi r24,lo8(18)	 ;  190	andqi3/2	[length = 1]
 112:main.c        **** 			}
 113:main.c        **** 			
 114:main.c        **** 			
 115:main.c        **** 		
 116:main.c        **** 		//Rückfahrt
 117:main.c        **** 		
 118:main.c        **** 		if (a_pressed || b_pressed > 0) {
 275               		.loc 1 118 0
 276 0126 01F0      		breq .L18	 ;  192	branch	[length = 1]
 119:main.c        **** 			StatusLED(RED);
 277               		.loc 1 119 0
 278 0128 82E0      		ldi r24,lo8(2)	 ;  194	movqi_insn/2	[length = 1]
 279 012a 00D0      		rcall StatusLED	 ;  195	call_insn/2	[length = 1]
 280               	.LVL31:
 120:main.c        **** 			BackLED(OFF,ON);
 281               		.loc 1 120 0
 282 012c 61E0      		ldi r22,lo8(1)	 ;  196	movqi_insn/2	[length = 1]
 283 012e 80E0      		ldi r24,0	 ;  197	movqi_insn/1	[length = 1]
 284 0130 00D0      		rcall BackLED	 ;  198	call_insn/2	[length = 1]
 285               	.LVL32:
 286               	.LBB20:
 287               	.LBB21:
 288               		.loc 2 346 0
 289 0132 84E2      		ldi r24,lo8(36)	 ;  201	movqi_insn/2	[length = 1]
 290 0134 00D0      		rcall sleep	 ;  202	call_insn/2	[length = 1]
 291               	.LVL33:
 292               	.LBE21:
 293               	.LBE20:
 121:main.c        **** 			msleep(1);
 122:main.c        **** 			BackLED(ON,OFF);
 294               		.loc 1 122 0
 295 0136 60E0      		ldi r22,0	 ;  205	movqi_insn/1	[length = 1]
 296 0138 81E0      		ldi r24,lo8(1)	 ;  206	movqi_insn/2	[length = 1]
 297 013a 00D0      		rcall BackLED	 ;  207	call_insn/2	[length = 1]
 298               	.LVL34:
 123:main.c        **** 			MotorDir(RWD,RWD);
 299               		.loc 1 123 0
 300 013c 60E1      		ldi r22,lo8(16)	 ;  208	movqi_insn/2	[length = 1]
 301 013e 80E1      		ldi r24,lo8(16)	 ;  209	movqi_insn/2	[length = 1]
 302 0140 00D0      		rcall MotorDir	 ;  210	call_insn/2	[length = 1]
 303               	.LVL35:
 124:main.c        **** 			MotorSpeed(120,120);
 304               		.loc 1 124 0
 305 0142 68E7      		ldi r22,lo8(120)	 ;  211	movqi_insn/2	[length = 1]
 306 0144 88E7      		ldi r24,lo8(120)	 ;  212	movqi_insn/2	[length = 1]
 307 0146 00D0      		rcall MotorSpeed	 ;  213	call_insn/2	[length = 1]
 308               	.LVL36:
 309 0148 08E5      		ldi r16,lo8(88)	 ;  379	*movhi/5	[length = 2]
 310 014a 12E0      		ldi r17,lo8(2)
 311               	.LVL37:
 312               	.L20:
 313               	.LBB22:
 314               	.LBB23:
 315               		.loc 2 346 0
 316 014c 84E2      		ldi r24,lo8(36)	 ;  218	movqi_insn/2	[length = 1]
 317 014e 00D0      		rcall sleep	 ;  219	call_insn/2	[length = 1]
 318               	.LVL38:
 319 0150 0150      		subi r16,1	 ;  223	addhi3_clobber/2	[length = 2]
 320 0152 1109      		sbc r17,__zero_reg__
 321               	.LVL39:
 345:../../libtinyasuro/inc/asuro/time.h ****         sleep(36);
 322               		.loc 2 345 0
 323 0154 0115      		cp r16,__zero_reg__	 ;  224	*cmphi/2	[length = 2]
 324 0156 1105      		cpc r17,__zero_reg__
 325 0158 01F4      		brne .L20	 ;  225	branch	[length = 1]
 326               	.LBE23:
 327               	.LBE22:
 125:main.c        **** 			msleep(600);
 126:main.c        **** 			MotorDir(BREAK,BREAK);
 328               		.loc 1 126 0
 329 015a 60E0      		ldi r22,0	 ;  234	movqi_insn/1	[length = 1]
 330 015c 80E0      		ldi r24,0	 ;  235	movqi_insn/1	[length = 1]
 331 015e 00D0      		rcall MotorDir	 ;  236	call_insn/2	[length = 1]
 332               	.LVL40:
 333               	.L18:
 334 0160 872D      		mov r24,r7	 ;  413	movqi_insn/1	[length = 1]
 335 0162 8970      		andi r24,lo8(9)	 ;  239	andqi3/2	[length = 1]
 127:main.c        **** 		}
 128:main.c        **** 		
 129:main.c        **** 		if (c_pressed || d_pressed > 0) {
 336               		.loc 1 129 0
 337 0164 01F0      		breq .L21	 ;  241	branch	[length = 1]
 130:main.c        **** 			StatusLED(RED);
 338               		.loc 1 130 0
 339 0166 82E0      		ldi r24,lo8(2)	 ;  243	movqi_insn/2	[length = 1]
 340 0168 00D0      		rcall StatusLED	 ;  244	call_insn/2	[length = 1]
 341               	.LVL41:
 131:main.c        **** 			BackLED(OFF,ON);
 342               		.loc 1 131 0
 343 016a 61E0      		ldi r22,lo8(1)	 ;  245	movqi_insn/2	[length = 1]
 344 016c 80E0      		ldi r24,0	 ;  246	movqi_insn/1	[length = 1]
 345 016e 00D0      		rcall BackLED	 ;  247	call_insn/2	[length = 1]
 346               	.LVL42:
 347               	.LBB24:
 348               	.LBB25:
 349               		.loc 2 346 0
 350 0170 84E2      		ldi r24,lo8(36)	 ;  250	movqi_insn/2	[length = 1]
 351 0172 00D0      		rcall sleep	 ;  251	call_insn/2	[length = 1]
 352               	.LVL43:
 353               	.LBE25:
 354               	.LBE24:
 132:main.c        **** 			msleep(1);
 133:main.c        **** 			BackLED(ON,OFF);
 355               		.loc 1 133 0
 356 0174 60E0      		ldi r22,0	 ;  254	movqi_insn/1	[length = 1]
 357 0176 81E0      		ldi r24,lo8(1)	 ;  255	movqi_insn/2	[length = 1]
 358 0178 00D0      		rcall BackLED	 ;  256	call_insn/2	[length = 1]
 359               	.LVL44:
 134:main.c        **** 			MotorDir(RWD,RWD);
 360               		.loc 1 134 0
 361 017a 60E1      		ldi r22,lo8(16)	 ;  257	movqi_insn/2	[length = 1]
 362 017c 80E1      		ldi r24,lo8(16)	 ;  258	movqi_insn/2	[length = 1]
 363 017e 00D0      		rcall MotorDir	 ;  259	call_insn/2	[length = 1]
 364               	.LVL45:
 135:main.c        **** 			MotorSpeed(120,60);
 365               		.loc 1 135 0
 366 0180 6CE3      		ldi r22,lo8(60)	 ;  260	movqi_insn/2	[length = 1]
 367 0182 88E7      		ldi r24,lo8(120)	 ;  261	movqi_insn/2	[length = 1]
 368 0184 00D0      		rcall MotorSpeed	 ;  262	call_insn/2	[length = 1]
 369               	.LVL46:
 370 0186 08E5      		ldi r16,lo8(88)	 ;  380	*movhi/5	[length = 2]
 371 0188 12E0      		ldi r17,lo8(2)
 372               	.LVL47:
 373               	.L23:
 374               	.LBB26:
 375               	.LBB27:
 376               		.loc 2 346 0
 377 018a 84E2      		ldi r24,lo8(36)	 ;  267	movqi_insn/2	[length = 1]
 378 018c 00D0      		rcall sleep	 ;  268	call_insn/2	[length = 1]
 379               	.LVL48:
 380 018e 0150      		subi r16,1	 ;  272	addhi3_clobber/2	[length = 2]
 381 0190 1109      		sbc r17,__zero_reg__
 382               	.LVL49:
 345:../../libtinyasuro/inc/asuro/time.h ****         sleep(36);
 383               		.loc 2 345 0
 384 0192 0115      		cp r16,__zero_reg__	 ;  273	*cmphi/2	[length = 2]
 385 0194 1105      		cpc r17,__zero_reg__
 386 0196 01F4      		brne .L23	 ;  274	branch	[length = 1]
 387               	.LBE27:
 388               	.LBE26:
 136:main.c        **** 			msleep(600);
 137:main.c        **** 			MotorDir(BREAK,BREAK);
 389               		.loc 1 137 0
 390 0198 60E0      		ldi r22,0	 ;  283	movqi_insn/1	[length = 1]
 391 019a 80E0      		ldi r24,0	 ;  284	movqi_insn/1	[length = 1]
 392 019c 00D0      		rcall MotorDir	 ;  285	call_insn/2	[length = 1]
 393               	.LVL50:
 394               	.L21:
 395 019e 872D      		mov r24,r7	 ;  414	movqi_insn/1	[length = 1]
 396 01a0 8472      		andi r24,lo8(36)	 ;  288	andqi3/2	[length = 1]
 138:main.c        **** 		}
 139:main.c        **** 		
 140:main.c        **** 		if (e_pressed || f_pressed > 0) {
 397               		.loc 1 140 0
 398 01a2 01F4      		brne .+2	 ;  290	branch	[length = 2]
 399 01a4 00C0      		rjmp .L27
 141:main.c        **** 			StatusLED(RED);
 400               		.loc 1 141 0
 401 01a6 82E0      		ldi r24,lo8(2)	 ;  292	movqi_insn/2	[length = 1]
 402 01a8 00D0      		rcall StatusLED	 ;  293	call_insn/2	[length = 1]
 403               	.LVL51:
 142:main.c        **** 			BackLED(OFF,ON);
 404               		.loc 1 142 0
 405 01aa 61E0      		ldi r22,lo8(1)	 ;  294	movqi_insn/2	[length = 1]
 406 01ac 80E0      		ldi r24,0	 ;  295	movqi_insn/1	[length = 1]
 407 01ae 00D0      		rcall BackLED	 ;  296	call_insn/2	[length = 1]
 408               	.LVL52:
 409               	.LBB28:
 410               	.LBB29:
 411               		.loc 2 346 0
 412 01b0 84E2      		ldi r24,lo8(36)	 ;  299	movqi_insn/2	[length = 1]
 413 01b2 00D0      		rcall sleep	 ;  300	call_insn/2	[length = 1]
 414               	.LVL53:
 415               	.LBE29:
 416               	.LBE28:
 143:main.c        **** 			msleep(1);
 144:main.c        **** 			BackLED(ON,OFF);
 417               		.loc 1 144 0
 418 01b4 60E0      		ldi r22,0	 ;  303	movqi_insn/1	[length = 1]
 419 01b6 81E0      		ldi r24,lo8(1)	 ;  304	movqi_insn/2	[length = 1]
 420 01b8 00D0      		rcall BackLED	 ;  305	call_insn/2	[length = 1]
 421               	.LVL54:
 145:main.c        **** 			MotorDir(RWD,RWD);
 422               		.loc 1 145 0
 423 01ba 60E1      		ldi r22,lo8(16)	 ;  306	movqi_insn/2	[length = 1]
 424 01bc 80E1      		ldi r24,lo8(16)	 ;  307	movqi_insn/2	[length = 1]
 425 01be 00D0      		rcall MotorDir	 ;  308	call_insn/2	[length = 1]
 426               	.LVL55:
 146:main.c        **** 			MotorSpeed(60,120);
 427               		.loc 1 146 0
 428 01c0 68E7      		ldi r22,lo8(120)	 ;  309	movqi_insn/2	[length = 1]
 429 01c2 8CE3      		ldi r24,lo8(60)	 ;  310	movqi_insn/2	[length = 1]
 430 01c4 00D0      		rcall MotorSpeed	 ;  311	call_insn/2	[length = 1]
 431               	.LVL56:
 432 01c6 08E5      		ldi r16,lo8(88)	 ;  381	*movhi/5	[length = 2]
 433 01c8 12E0      		ldi r17,lo8(2)
 434               	.LVL57:
 435               	.L26:
 436               	.LBB30:
 437               	.LBB31:
 438               		.loc 2 346 0
 439 01ca 84E2      		ldi r24,lo8(36)	 ;  316	movqi_insn/2	[length = 1]
 440 01cc 00D0      		rcall sleep	 ;  317	call_insn/2	[length = 1]
 441               	.LVL58:
 442 01ce 0150      		subi r16,1	 ;  321	addhi3_clobber/2	[length = 2]
 443 01d0 1109      		sbc r17,__zero_reg__
 444               	.LVL59:
 345:../../libtinyasuro/inc/asuro/time.h ****         sleep(36);
 445               		.loc 2 345 0
 446 01d2 0115      		cp r16,__zero_reg__	 ;  322	*cmphi/2	[length = 2]
 447 01d4 1105      		cpc r17,__zero_reg__
 448 01d6 01F4      		brne .L26	 ;  323	branch	[length = 1]
 449               	.LBE31:
 450               	.LBE30:
 147:main.c        **** 			msleep(600);
 148:main.c        **** 			MotorDir(BREAK,BREAK);
 451               		.loc 1 148 0
 452 01d8 60E0      		ldi r22,0	 ;  332	movqi_insn/1	[length = 1]
 453 01da 80E0      		ldi r24,0	 ;  333	movqi_insn/1	[length = 1]
 454 01dc 00D0      		rcall MotorDir	 ;  334	call_insn/2	[length = 1]
 455               	.LVL60:
 456               	.LBE17:
 149:main.c        **** 		}	
 150:main.c        **** 
 151:main.c        **** 	
 152:main.c        **** 	
 153:main.c        **** 	
 154:main.c        **** 
 155:main.c        **** }
 457               		.loc 1 155 0
 458 01de 00C0      		rjmp .L27	 ;  437	jump	[length = 1]
 459               		.cfi_endproc
 460               	.LFE2:
 462               		.text
 463               	.Letext0:
 464               		.file 3 "/usr/lib/avr/include/stdint.h"
 465               		.file 4 "../../libtinyasuro/inc/asuro/sensors.h"
 466               		.file 5 "../../libtinyasuro/inc/asuro/led.h"
 467               		.file 6 "../../libtinyasuro/inc/asuro/motor.h"
 468               		.file 7 "../../libtinyasuro/inc/asuro/switches.h"
 469               		.file 8 "../../libtinyasuro/inc/asuro/asuro.h"